ARM GAS  /var/folders/z4/49152xh17977x5plrghp70jc0000gn/T//ccjGVwIo.s 			page 1


   1              		.cpu cortex-m4
   2              		.eabi_attribute 27, 1
   3              		.eabi_attribute 28, 1
   4              		.eabi_attribute 20, 1
   5              		.eabi_attribute 21, 1
   6              		.eabi_attribute 23, 3
   7              		.eabi_attribute 24, 1
   8              		.eabi_attribute 25, 1
   9              		.eabi_attribute 26, 1
  10              		.eabi_attribute 30, 2
  11              		.eabi_attribute 34, 1
  12              		.eabi_attribute 18, 4
  13              		.file	"arena.c"
  14              		.text
  15              	.Ltext0:
  16              		.cfi_sections	.debug_frame
  17              		.section	.text.goforward.part.0,"ax",%progbits
  18              		.align	1
  19              		.p2align 4,,15
  20              		.syntax unified
  21              		.thumb
  22              		.thumb_func
  23              		.fpu fpv4-sp-d16
  24              		.type	goforward.part.0, %function
  25              	goforward.part.0:
  26              	.LFB310:
  27              		.file 1 "arena.c"
  28              		.loc 1 113 0
  29              		.cfi_startproc
  30              		@ args = 0, pretend = 0, frame = 8
  31              		@ frame_needed = 0, uses_anonymous_args = 0
  32              	.LVL0:
  33 0000 00B5     		push	{lr}
  34              		.cfi_def_cfa_offset 4
  35              		.cfi_offset 14, -4
  36 0002 0A4B     		ldr	r3, .L7
  37 0004 83B0     		sub	sp, sp, #12
  38              		.cfi_def_cfa_offset 16
  39              		.loc 1 113 0
  40 0006 1A68     		ldr	r2, [r3]
  41 0008 0192     		str	r2, [sp, #4]
  42              	.LVL1:
  43              		.loc 1 124 0
  44 000a 019A     		ldr	r2, [sp, #4]
  45 000c 1B68     		ldr	r3, [r3]
  46 000e 9A42     		cmp	r2, r3
  47 0010 0AD1     		bne	.L6
  48 0012 F1EE041A 		vmov.f32	s3, #5.0e+0
  49 0016 F0EE400A 		vmov.f32	s1, s0
  50 001a B0EE611A 		vmov.f32	s2, s3
  51              		.loc 1 127 0
  52 001e 03B0     		add	sp, sp, #12
  53              		.cfi_remember_state
  54              		.cfi_def_cfa_offset 4
  55              		@ sp needed
  56 0020 5DF804EB 		ldr	lr, [sp], #4
  57              		.cfi_restore 14
ARM GAS  /var/folders/z4/49152xh17977x5plrghp70jc0000gn/T//ccjGVwIo.s 			page 2


  58              		.cfi_def_cfa_offset 0
  59              		.loc 1 124 0
  60 0024 FFF7FEBF 		b	motors_advanced_set_position
  61              	.LVL2:
  62              	.L6:
  63              		.cfi_restore_state
  64 0028 FFF7FEFF 		bl	__stack_chk_fail
  65              	.LVL3:
  66              	.L8:
  67              		.align	2
  68              	.L7:
  69 002c 00000000 		.word	__stack_chk_guard
  70              		.cfi_endproc
  71              	.LFE310:
  72              		.size	goforward.part.0, .-goforward.part.0
  73              		.section	.text.init_arena,"ax",%progbits
  74              		.align	1
  75              		.p2align 4,,15
  76              		.global	init_arena
  77              		.syntax unified
  78              		.thumb
  79              		.thumb_func
  80              		.fpu fpv4-sp-d16
  81              		.type	init_arena, %function
  82              	init_arena:
  83              	.LFB293:
  84              		.loc 1 38 0
  85              		.cfi_startproc
  86              		@ args = 0, pretend = 0, frame = 8
  87              		@ frame_needed = 0, uses_anonymous_args = 0
  88 0000 10B5     		push	{r4, lr}
  89              		.cfi_def_cfa_offset 8
  90              		.cfi_offset 4, -8
  91              		.cfi_offset 14, -4
  92 0002 0A4C     		ldr	r4, .L14
  93 0004 82B0     		sub	sp, sp, #8
  94              		.cfi_def_cfa_offset 16
  95              		.loc 1 38 0
  96 0006 2368     		ldr	r3, [r4]
  97 0008 0193     		str	r3, [sp, #4]
  98              		.loc 1 40 0
  99 000a FFF7FEFF 		bl	VL53L0X_start
 100              	.LVL4:
 101              		.loc 1 41 0
 102 000e FFF7FEFF 		bl	motors_advanced_init
 103              	.LVL5:
 104              		.loc 1 42 0
 105 0012 019A     		ldr	r2, [sp, #4]
 106 0014 2368     		ldr	r3, [r4]
 107 0016 9A42     		cmp	r2, r3
 108 0018 05D1     		bne	.L13
 109 001a C820     		movs	r0, #200
 110              		.loc 1 43 0
 111 001c 02B0     		add	sp, sp, #8
 112              		.cfi_remember_state
 113              		.cfi_def_cfa_offset 8
 114              		@ sp needed
ARM GAS  /var/folders/z4/49152xh17977x5plrghp70jc0000gn/T//ccjGVwIo.s 			page 3


 115 001e BDE81040 		pop	{r4, lr}
 116              		.cfi_restore 14
 117              		.cfi_restore 4
 118              		.cfi_def_cfa_offset 0
 119              		.loc 1 42 0
 120 0022 FFF7FEBF 		b	chThdSleep
 121              	.LVL6:
 122              	.L13:
 123              		.cfi_restore_state
 124 0026 FFF7FEFF 		bl	__stack_chk_fail
 125              	.LVL7:
 126              	.L15:
 127 002a 00BF     		.align	2
 128              	.L14:
 129 002c 00000000 		.word	__stack_chk_guard
 130              		.cfi_endproc
 131              	.LFE293:
 132              		.size	init_arena, .-init_arena
 133              		.section	.text.wasteinsight,"ax",%progbits
 134              		.align	1
 135              		.p2align 4,,15
 136              		.global	wasteinsight
 137              		.syntax unified
 138              		.thumb
 139              		.thumb_func
 140              		.fpu fpv4-sp-d16
 141              		.type	wasteinsight, %function
 142              	wasteinsight:
 143              	.LFB295:
 144              		.loc 1 51 0
 145              		.cfi_startproc
 146              		@ args = 0, pretend = 0, frame = 8
 147              		@ frame_needed = 0, uses_anonymous_args = 0
 148              	.LVL8:
 149 0000 00B5     		push	{lr}
 150              		.cfi_def_cfa_offset 4
 151              		.cfi_offset 14, -4
 152 0002 074B     		ldr	r3, .L20
 153 0004 83B0     		sub	sp, sp, #12
 154              		.cfi_def_cfa_offset 16
 155              		.loc 1 51 0
 156 0006 1A68     		ldr	r2, [r3]
 157 0008 0192     		str	r2, [sp, #4]
 158              		.loc 1 53 0
 159 000a 019A     		ldr	r2, [sp, #4]
 160 000c 1B68     		ldr	r3, [r3]
 161 000e 9A42     		cmp	r2, r3
 162 0010 03D1     		bne	.L19
 163 0012 0020     		movs	r0, #0
 164              	.LVL9:
 165 0014 03B0     		add	sp, sp, #12
 166              		.cfi_remember_state
 167              		.cfi_def_cfa_offset 4
 168              		@ sp needed
 169 0016 5DF804FB 		ldr	pc, [sp], #4
 170              	.LVL10:
 171              	.L19:
ARM GAS  /var/folders/z4/49152xh17977x5plrghp70jc0000gn/T//ccjGVwIo.s 			page 4


 172              		.cfi_restore_state
 173 001a FFF7FEFF 		bl	__stack_chk_fail
 174              	.LVL11:
 175              	.L21:
 176 001e 00BF     		.align	2
 177              	.L20:
 178 0020 00000000 		.word	__stack_chk_guard
 179              		.cfi_endproc
 180              	.LFE295:
 181              		.size	wasteinsight, .-wasteinsight
 182              		.section	.text.findwall,"ax",%progbits
 183              		.align	1
 184              		.p2align 4,,15
 185              		.global	findwall
 186              		.syntax unified
 187              		.thumb
 188              		.thumb_func
 189              		.fpu fpv4-sp-d16
 190              		.type	findwall, %function
 191              	findwall:
 192              	.LFB297:
 193              		.loc 1 82 0
 194              		.cfi_startproc
 195              		@ args = 0, pretend = 0, frame = 8
 196              		@ frame_needed = 0, uses_anonymous_args = 0
 197 0000 F0B5     		push	{r4, r5, r6, r7, lr}
 198              		.cfi_def_cfa_offset 20
 199              		.cfi_offset 4, -20
 200              		.cfi_offset 5, -16
 201              		.cfi_offset 6, -12
 202              		.cfi_offset 7, -8
 203              		.cfi_offset 14, -4
 204 0002 2DED028B 		vpush.64	{d8}
 205              		.cfi_def_cfa_offset 28
 206              		.cfi_offset 80, -28
 207              		.cfi_offset 81, -24
 208 0006 194F     		ldr	r7, .L29
 209              	.LBB43:
 210              	.LBB44:
 211              	.LBB45:
 212              		.loc 1 141 0
 213 0008 9FED198A 		vldr.32	s16, .L29+4
 214              	.LBE45:
 215              	.LBE44:
 216              	.LBE43:
 217              		.loc 1 82 0
 218 000c 3B68     		ldr	r3, [r7]
 219 000e 83B0     		sub	sp, sp, #12
 220              		.cfi_def_cfa_offset 40
 221              		.loc 1 85 0
 222 0010 0024     		movs	r4, #0
 223              		.loc 1 82 0
 224 0012 0193     		str	r3, [sp, #4]
 225              	.LVL12:
 226              		.loc 1 85 0
 227 0014 FFF7FEFF 		bl	VL53L0X_get_dist_mm
 228              	.LVL13:
ARM GAS  /var/folders/z4/49152xh17977x5plrghp70jc0000gn/T//ccjGVwIo.s 			page 5


 229              		.loc 1 84 0
 230 0018 C825     		movs	r5, #200
 231              		.loc 1 83 0
 232 001a FF26     		movs	r6, #255
 233              	.LVL14:
 234              	.L24:
 235              	.LBB50:
 236              		.loc 1 89 0
 237 001c 9620     		movs	r0, #150
 238 001e FFF7FEFF 		bl	chThdSleep
 239              	.LVL15:
 240              		.loc 1 90 0
 241 0022 FFF7FEFF 		bl	VL53L0X_get_dist_mm
 242              	.LVL16:
 243              		.loc 1 91 0
 244 0026 A842     		cmp	r0, r5
 245              	.LVL17:
 246              		.loc 1 93 0
 247 0028 38BF     		it	cc
 248 002a E6B2     		uxtbcc	r6, r4
 249              	.LVL18:
 250              	.LBB48:
 251              	.LBB46:
 252              		.loc 1 141 0
 253 002c F9EE041A 		vmov.f32	s3, #-5.0e+0
 254 0030 04F10104 		add	r4, r4, #1
 255              	.LVL19:
 256 0034 B1EE041A 		vmov.f32	s2, #5.0e+0
 257 0038 F0EE480A 		vmov.f32	s1, s16
 258 003c 9FED0C0A 		vldr.32	s0, .L29+4
 259              	.LBE46:
 260              	.LBE48:
 261              		.loc 1 93 0
 262 0040 38BF     		it	cc
 263 0042 0546     		movcc	r5, r0
 264              	.LVL20:
 265              	.LBB49:
 266              	.LBB47:
 267              		.loc 1 141 0
 268 0044 FFF7FEFF 		bl	motors_advanced_set_position
 269              	.LVL21:
 270              	.LBE47:
 271              	.LBE49:
 272              		.loc 1 87 0
 273 0048 142C     		cmp	r4, #20
 274 004a E7D1     		bne	.L24
 275              	.LBE50:
 276              		.loc 1 99 0
 277 004c 019A     		ldr	r2, [sp, #4]
 278 004e 3B68     		ldr	r3, [r7]
 279              		.loc 1 97 0
 280 0050 0136     		adds	r6, r6, #1
 281 0052 06EBC606 		add	r6, r6, r6, lsl #3
 282              		.loc 1 99 0
 283 0056 9A42     		cmp	r2, r3
 284 0058 4FEA4600 		lsl	r0, r6, #1
 285 005c 03D1     		bne	.L28
ARM GAS  /var/folders/z4/49152xh17977x5plrghp70jc0000gn/T//ccjGVwIo.s 			page 6


 286 005e 03B0     		add	sp, sp, #12
 287              		.cfi_remember_state
 288              		.cfi_def_cfa_offset 28
 289              		@ sp needed
 290 0060 BDEC028B 		vldm	sp!, {d8}
 291              		.cfi_restore 80
 292              		.cfi_restore 81
 293              		.cfi_def_cfa_offset 20
 294 0064 F0BD     		pop	{r4, r5, r6, r7, pc}
 295              	.LVL22:
 296              	.L28:
 297              		.cfi_restore_state
 298 0066 FFF7FEFF 		bl	__stack_chk_fail
 299              	.LVL23:
 300              	.L30:
 301 006a 00BF     		.align	2
 302              	.L29:
 303 006c 00000000 		.word	__stack_chk_guard
 304 0070 E222573F 		.word	1062675170
 305              		.cfi_endproc
 306              	.LFE297:
 307              		.size	findwall, .-findwall
 308              		.section	.text.aligntothewall,"ax",%progbits
 309              		.align	1
 310              		.p2align 4,,15
 311              		.global	aligntothewall
 312              		.syntax unified
 313              		.thumb
 314              		.thumb_func
 315              		.fpu fpv4-sp-d16
 316              		.type	aligntothewall, %function
 317              	aligntothewall:
 318              	.LFB299:
 319              		.loc 1 110 0
 320              		.cfi_startproc
 321              		@ args = 0, pretend = 0, frame = 8
 322              		@ frame_needed = 0, uses_anonymous_args = 0
 323              	.LVL24:
 324              	.LBB51:
 325              	.LBB52:
 326              		.loc 1 140 0
 327 0000 07EE900A 		vmov	s15, r0	@ int
 328 0004 9FED0F7A 		vldr.32	s14, .L36
 329              	.LBE52:
 330              	.LBE51:
 331              		.loc 1 110 0
 332 0008 0F4B     		ldr	r3, .L36+4
 333              	.LBB57:
 334              	.LBB53:
 335              		.loc 1 140 0
 336 000a F8EEE76A 		vcvt.f32.s32	s13, s15
 337              	.LBE53:
 338              	.LBE57:
 339              		.loc 1 110 0
 340 000e 00B5     		push	{lr}
 341              		.cfi_def_cfa_offset 4
 342              		.cfi_offset 14, -4
ARM GAS  /var/folders/z4/49152xh17977x5plrghp70jc0000gn/T//ccjGVwIo.s 			page 7


 343              	.LBB58:
 344              	.LBB54:
 345              		.loc 1 140 0
 346 0010 C6EE870A 		vdiv.f32	s1, s13, s14
 347              	.LBE54:
 348              	.LBE58:
 349              		.loc 1 110 0
 350 0014 83B0     		sub	sp, sp, #12
 351              		.cfi_def_cfa_offset 16
 352              		.loc 1 110 0
 353 0016 1A68     		ldr	r2, [r3]
 354 0018 0192     		str	r2, [sp, #4]
 355              	.LVL25:
 356              	.LBB59:
 357              	.LBB55:
 358              		.loc 1 141 0
 359 001a 019A     		ldr	r2, [sp, #4]
 360 001c 1B68     		ldr	r3, [r3]
 361 001e 9A42     		cmp	r2, r3
 362              		.loc 1 140 0
 363 0020 DFED0A7A 		vldr.32	s15, .L36+8
 364 0024 60EEA70A 		vmul.f32	s1, s1, s15
 365              	.LVL26:
 366              		.loc 1 141 0
 367 0028 0AD1     		bne	.L35
 368 002a F9EE041A 		vmov.f32	s3, #-5.0e+0
 369 002e B1EE041A 		vmov.f32	s2, #5.0e+0
 370 0032 B0EE600A 		vmov.f32	s0, s1
 371              	.LBE55:
 372              	.LBE59:
 373              		.loc 1 112 0
 374 0036 03B0     		add	sp, sp, #12
 375              		.cfi_remember_state
 376              		.cfi_def_cfa_offset 4
 377              		@ sp needed
 378 0038 5DF804EB 		ldr	lr, [sp], #4
 379              		.cfi_restore 14
 380              		.cfi_def_cfa_offset 0
 381              	.LBB60:
 382              	.LBB56:
 383              		.loc 1 141 0
 384 003c FFF7FEBF 		b	motors_advanced_set_position
 385              	.LVL27:
 386              	.L35:
 387              		.cfi_restore_state
 388 0040 FFF7FEFF 		bl	__stack_chk_fail
 389              	.LVL28:
 390              	.L37:
 391              		.align	2
 392              	.L36:
 393 0044 0000B443 		.word	1135869952
 394 0048 00000000 		.word	__stack_chk_guard
 395 004c CD758641 		.word	1099331021
 396              	.LBE56:
 397              	.LBE60:
 398              		.cfi_endproc
 399              	.LFE299:
ARM GAS  /var/folders/z4/49152xh17977x5plrghp70jc0000gn/T//ccjGVwIo.s 			page 8


 400              		.size	aligntothewall, .-aligntothewall
 401              		.section	.text.goforward,"ax",%progbits
 402              		.align	1
 403              		.p2align 4,,15
 404              		.global	goforward
 405              		.syntax unified
 406              		.thumb
 407              		.thumb_func
 408              		.fpu fpv4-sp-d16
 409              		.type	goforward, %function
 410              	goforward:
 411              	.LFB300:
 412              		.loc 1 113 0
 413              		.cfi_startproc
 414              		@ args = 0, pretend = 0, frame = 8
 415              		@ frame_needed = 0, uses_anonymous_args = 0
 416              	.LVL29:
 417 0000 10B5     		push	{r4, lr}
 418              		.cfi_def_cfa_offset 8
 419              		.cfi_offset 4, -8
 420              		.cfi_offset 14, -4
 421 0002 174C     		ldr	r4, .L51
 422 0004 82B0     		sub	sp, sp, #8
 423              		.cfi_def_cfa_offset 16
 424              		.loc 1 113 0
 425 0006 2368     		ldr	r3, [r4]
 426 0008 0193     		str	r3, [sp, #4]
 427              		.loc 1 114 0
 428 000a 00BB     		cbnz	r0, .L38
 429              		.loc 1 116 0
 430 000c B5EE400A 		vcmp.f32	s0, #0
 431 0010 F1EE10FA 		vmrs	APSR_nzcv, FPSCR
 432 0014 0ED0     		beq	.L40
 433 0016 019A     		ldr	r2, [sp, #4]
 434 0018 2368     		ldr	r3, [r4]
 435 001a 9A42     		cmp	r2, r3
 436 001c 1DD1     		bne	.L50
 437              		.loc 1 127 0
 438 001e 02B0     		add	sp, sp, #8
 439              		.cfi_remember_state
 440              		.cfi_def_cfa_offset 8
 441              		@ sp needed
 442 0020 BDE81040 		pop	{r4, lr}
 443              		.cfi_restore 14
 444              		.cfi_restore 4
 445              		.cfi_def_cfa_offset 0
 446 0024 FFF7FEBF 		b	goforward.part.0
 447              	.LVL30:
 448              	.L42:
 449              		.cfi_restore_state
 450              		.loc 1 120 0
 451 0028 F1EE040A 		vmov.f32	s1, #5.0e+0
 452 002c B0EE600A 		vmov.f32	s0, s1
 453 0030 FFF7FEFF 		bl	motors_advanced_set_speed
 454              	.LVL31:
 455              	.L40:
 456              		.loc 1 118 0
ARM GAS  /var/folders/z4/49152xh17977x5plrghp70jc0000gn/T//ccjGVwIo.s 			page 9


 457 0034 FFF7FEFF 		bl	VL53L0X_get_dist_mm
 458              	.LVL32:
 459 0038 3228     		cmp	r0, #50
 460 003a F5D8     		bhi	.L42
 461              		.loc 1 122 0
 462 003c 019A     		ldr	r2, [sp, #4]
 463 003e 2368     		ldr	r3, [r4]
 464 0040 9A42     		cmp	r2, r3
 465 0042 0AD1     		bne	.L50
 466              		.loc 1 127 0
 467 0044 02B0     		add	sp, sp, #8
 468              		.cfi_remember_state
 469              		.cfi_def_cfa_offset 8
 470              		@ sp needed
 471 0046 BDE81040 		pop	{r4, lr}
 472              		.cfi_restore 14
 473              		.cfi_restore 4
 474              		.cfi_def_cfa_offset 0
 475              		.loc 1 122 0
 476 004a FFF7FEBF 		b	motors_advanced_stop
 477              	.LVL33:
 478              	.L38:
 479              		.cfi_restore_state
 480              		.loc 1 127 0
 481 004e 019A     		ldr	r2, [sp, #4]
 482 0050 2368     		ldr	r3, [r4]
 483 0052 9A42     		cmp	r2, r3
 484 0054 01D1     		bne	.L50
 485 0056 02B0     		add	sp, sp, #8
 486              		.cfi_remember_state
 487              		.cfi_def_cfa_offset 8
 488              		@ sp needed
 489 0058 10BD     		pop	{r4, pc}
 490              	.LVL34:
 491              	.L50:
 492              		.cfi_restore_state
 493 005a FFF7FEFF 		bl	__stack_chk_fail
 494              	.LVL35:
 495              	.L52:
 496 005e 00BF     		.align	2
 497              	.L51:
 498 0060 00000000 		.word	__stack_chk_guard
 499              		.cfi_endproc
 500              	.LFE300:
 501              		.size	goforward, .-goforward
 502              		.section	.text.gotowall,"ax",%progbits
 503              		.align	1
 504              		.p2align 4,,15
 505              		.global	gotowall
 506              		.syntax unified
 507              		.thumb
 508              		.thumb_func
 509              		.fpu fpv4-sp-d16
 510              		.type	gotowall, %function
 511              	gotowall:
 512              	.LFB298:
 513              		.loc 1 102 0
ARM GAS  /var/folders/z4/49152xh17977x5plrghp70jc0000gn/T//ccjGVwIo.s 			page 10


 514              		.cfi_startproc
 515              		@ args = 0, pretend = 0, frame = 8
 516              		@ frame_needed = 0, uses_anonymous_args = 0
 517 0000 10B5     		push	{r4, lr}
 518              		.cfi_def_cfa_offset 8
 519              		.cfi_offset 4, -8
 520              		.cfi_offset 14, -4
 521 0002 154C     		ldr	r4, .L58
 522 0004 82B0     		sub	sp, sp, #8
 523              		.cfi_def_cfa_offset 16
 524              		.loc 1 102 0
 525 0006 2368     		ldr	r3, [r4]
 526 0008 0193     		str	r3, [sp, #4]
 527              	.LVL36:
 528              		.loc 1 104 0
 529 000a FFF7FEFF 		bl	findwall
 530              	.LVL37:
 531              	.LBB61:
 532              	.LBB62:
 533              	.LBB63:
 534              		.loc 1 140 0
 535 000e 06EE900A 		vmov	s13, r0	@ int
 536 0012 9FED127A 		vldr.32	s14, .L58+4
 537 0016 DFED127A 		vldr.32	s15, .L58+8
 538 001a F8EEE66A 		vcvt.f32.s32	s13, s13
 539              		.loc 1 141 0
 540 001e F9EE041A 		vmov.f32	s3, #-5.0e+0
 541              		.loc 1 140 0
 542 0022 C6EE870A 		vdiv.f32	s1, s13, s14
 543              		.loc 1 141 0
 544 0026 B1EE041A 		vmov.f32	s2, #5.0e+0
 545              		.loc 1 140 0
 546 002a 60EEA70A 		vmul.f32	s1, s1, s15
 547              	.LVL38:
 548              		.loc 1 141 0
 549 002e B0EE600A 		vmov.f32	s0, s1
 550 0032 FFF7FEFF 		bl	motors_advanced_set_position
 551              	.LVL39:
 552              	.LBE63:
 553              	.LBE62:
 554              	.LBE61:
 555              		.loc 1 106 0
 556 0036 9620     		movs	r0, #150
 557 0038 FFF7FEFF 		bl	chThdSleep
 558              	.LVL40:
 559              		.loc 1 107 0
 560 003c 019A     		ldr	r2, [sp, #4]
 561 003e 2368     		ldr	r3, [r4]
 562 0040 9A42     		cmp	r2, r3
 563 0042 07D1     		bne	.L57
 564 0044 9FED070A 		vldr.32	s0, .L58+12
 565 0048 0020     		movs	r0, #0
 566              		.loc 1 109 0
 567 004a 02B0     		add	sp, sp, #8
 568              		.cfi_remember_state
 569              		.cfi_def_cfa_offset 8
 570              		@ sp needed
ARM GAS  /var/folders/z4/49152xh17977x5plrghp70jc0000gn/T//ccjGVwIo.s 			page 11


 571 004c BDE81040 		pop	{r4, lr}
 572              		.cfi_restore 14
 573              		.cfi_restore 4
 574              		.cfi_def_cfa_offset 0
 575              		.loc 1 107 0
 576 0050 FFF7FEBF 		b	goforward
 577              	.LVL41:
 578              	.L57:
 579              		.cfi_restore_state
 580 0054 FFF7FEFF 		bl	__stack_chk_fail
 581              	.LVL42:
 582              	.L59:
 583              		.align	2
 584              	.L58:
 585 0058 00000000 		.word	__stack_chk_guard
 586 005c 0000B443 		.word	1135869952
 587 0060 CD758641 		.word	1099331021
 588 0064 00000000 		.word	0
 589              		.cfi_endproc
 590              	.LFE298:
 591              		.size	gotowall, .-gotowall
 592              		.section	.text.gotoarenacenter,"ax",%progbits
 593              		.align	1
 594              		.p2align 4,,15
 595              		.global	gotoarenacenter
 596              		.syntax unified
 597              		.thumb
 598              		.thumb_func
 599              		.fpu fpv4-sp-d16
 600              		.type	gotoarenacenter, %function
 601              	gotoarenacenter:
 602              	.LFB294:
 603              		.loc 1 45 0
 604              		.cfi_startproc
 605              		@ args = 0, pretend = 0, frame = 8
 606              		@ frame_needed = 0, uses_anonymous_args = 0
 607 0000 00B5     		push	{lr}
 608              		.cfi_def_cfa_offset 4
 609              		.cfi_offset 14, -4
 610 0002 074B     		ldr	r3, .L65
 611 0004 83B0     		sub	sp, sp, #12
 612              		.cfi_def_cfa_offset 16
 613              		.loc 1 45 0
 614 0006 1A68     		ldr	r2, [r3]
 615 0008 0192     		str	r2, [sp, #4]
 616              	.LBB66:
 617              	.LBB67:
 618              		.loc 1 129 0
 619 000a 019A     		ldr	r2, [sp, #4]
 620 000c 1B68     		ldr	r3, [r3]
 621 000e 9A42     		cmp	r2, r3
 622 0010 04D1     		bne	.L64
 623              	.LBE67:
 624              	.LBE66:
 625              		.loc 1 50 0
 626 0012 03B0     		add	sp, sp, #12
 627              		.cfi_remember_state
ARM GAS  /var/folders/z4/49152xh17977x5plrghp70jc0000gn/T//ccjGVwIo.s 			page 12


 628              		.cfi_def_cfa_offset 4
 629              		@ sp needed
 630 0014 5DF804EB 		ldr	lr, [sp], #4
 631              		.cfi_restore 14
 632              		.cfi_def_cfa_offset 0
 633              	.LBB69:
 634              	.LBB68:
 635              		.loc 1 129 0
 636 0018 FFF7FEBF 		b	gotowall
 637              	.LVL43:
 638              	.L64:
 639              		.cfi_restore_state
 640 001c FFF7FEFF 		bl	__stack_chk_fail
 641              	.LVL44:
 642              	.L66:
 643              		.align	2
 644              	.L65:
 645 0020 00000000 		.word	__stack_chk_guard
 646              	.LBE68:
 647              	.LBE69:
 648              		.cfi_endproc
 649              	.LFE294:
 650              		.size	gotoarenacenter, .-gotoarenacenter
 651              		.section	.text.searchwaste,"ax",%progbits
 652              		.align	1
 653              		.p2align 4,,15
 654              		.global	searchwaste
 655              		.syntax unified
 656              		.thumb
 657              		.thumb_func
 658              		.fpu fpv4-sp-d16
 659              		.type	searchwaste, %function
 660              	searchwaste:
 661              	.LFB296:
 662              		.loc 1 54 0
 663              		.cfi_startproc
 664              		@ args = 0, pretend = 0, frame = 8
 665              		@ frame_needed = 0, uses_anonymous_args = 0
 666 0000 30B5     		push	{r4, r5, lr}
 667              		.cfi_def_cfa_offset 12
 668              		.cfi_offset 4, -12
 669              		.cfi_offset 5, -8
 670              		.cfi_offset 14, -4
 671              		.loc 1 58 0
 672 0002 194C     		ldr	r4, .L78
 673              		.loc 1 54 0
 674 0004 194D     		ldr	r5, .L78+4
 675              		.loc 1 58 0
 676 0006 2378     		ldrb	r3, [r4]	@ zero_extendqisi2
 677              		.loc 1 54 0
 678 0008 2A68     		ldr	r2, [r5]
 679 000a 83B0     		sub	sp, sp, #12
 680              		.cfi_def_cfa_offset 24
 681              		.loc 1 54 0
 682 000c 0192     		str	r2, [sp, #4]
 683              	.LVL45:
 684              		.loc 1 58 0
ARM GAS  /var/folders/z4/49152xh17977x5plrghp70jc0000gn/T//ccjGVwIo.s 			page 13


 685 000e 042B     		cmp	r3, #4
 686 0010 22D8     		bhi	.L67
 687 0012 DFE803F0 		tbb	[pc, r3]
 688              	.L70:
 689 0016 03       		.byte	(.L69-.L70)/2
 690 0017 03       		.byte	(.L69-.L70)/2
 691 0018 0E       		.byte	(.L71-.L70)/2
 692 0019 11       		.byte	(.L72-.L70)/2
 693 001a 1D       		.byte	(.L73-.L70)/2
 694 001b 00       		.p2align 1
 695              	.L69:
 696              	.LBB70:
 697              	.LBB71:
 698              		.loc 1 145 0
 699 001c 9FED140A 		vldr.32	s0, .L78+8
 700 0020 0020     		movs	r0, #0
 701 0022 FFF7FEFF 		bl	goforward
 702              	.LVL46:
 703              	.LBB72:
 704              	.LBB73:
 705 0026 B7EE000A 		vmov.f32	s0, #1.0e+0
 706 002a FFF7FEFF 		bl	goforward.part.0
 707              	.LVL47:
 708              	.LBE73:
 709              	.LBE72:
 710              	.LBE71:
 711              	.LBE70:
 712              		.loc 1 67 0
 713 002e 0223     		movs	r3, #2
 714 0030 2370     		strb	r3, [r4]
 715              	.L71:
 716              	.LBB74:
 717              	.LBB75:
 718              	.LBB76:
 719              	.LBB77:
 720              		.loc 1 129 0
 721 0032 FFF7FEFF 		bl	gotowall
 722              	.LVL48:
 723              	.L74:
 724 0036 FEE7     		b	.L74
 725              	.L72:
 726              	.LVL49:
 727              	.LBE77:
 728              	.LBE76:
 729              	.LBE75:
 730              	.LBE74:
 731              	.LBB78:
 732              	.LBB79:
 733              		.loc 1 141 0
 734 0038 DFED0E0A 		vldr.32	s1, .L78+12
 735 003c F9EE041A 		vmov.f32	s3, #-5.0e+0
 736 0040 B0EE600A 		vmov.f32	s0, s1
 737 0044 B1EE041A 		vmov.f32	s2, #5.0e+0
 738 0048 FFF7FEFF 		bl	motors_advanced_set_position
 739              	.LVL50:
 740              	.LBE79:
 741              	.LBE78:
ARM GAS  /var/folders/z4/49152xh17977x5plrghp70jc0000gn/T//ccjGVwIo.s 			page 14


 742              		.loc 1 74 0
 743 004c 0423     		movs	r3, #4
 744 004e 2370     		strb	r3, [r4]
 745              	.L73:
 746              	.LBB80:
 747              	.LBB81:
 748              	.LBB82:
 749              		.loc 1 129 0
 750 0050 FFF7FEFF 		bl	gotowall
 751              	.LVL51:
 752              	.LBE82:
 753              	.LBE81:
 754              	.LBE80:
 755              		.loc 1 77 0
 756 0054 0023     		movs	r3, #0
 757 0056 2370     		strb	r3, [r4]
 758              	.L67:
 759              		.loc 1 79 0
 760 0058 019A     		ldr	r2, [sp, #4]
 761 005a 2B68     		ldr	r3, [r5]
 762 005c 9A42     		cmp	r2, r3
 763 005e 01D1     		bne	.L77
 764 0060 03B0     		add	sp, sp, #12
 765              		.cfi_remember_state
 766              		.cfi_def_cfa_offset 12
 767              		@ sp needed
 768 0062 30BD     		pop	{r4, r5, pc}
 769              	.L77:
 770              		.cfi_restore_state
 771 0064 FFF7FEFF 		bl	__stack_chk_fail
 772              	.LVL52:
 773              	.L79:
 774              		.align	2
 775              	.L78:
 776 0068 00000000 		.word	.LANCHOR0
 777 006c 00000000 		.word	__stack_chk_guard
 778 0070 00000000 		.word	0
 779 0074 CD758640 		.word	1082553805
 780              		.cfi_endproc
 781              	.LFE296:
 782              		.size	searchwaste, .-searchwaste
 783              		.section	.text.gotoedge,"ax",%progbits
 784              		.align	1
 785              		.p2align 4,,15
 786              		.global	gotoedge
 787              		.syntax unified
 788              		.thumb
 789              		.thumb_func
 790              		.fpu fpv4-sp-d16
 791              		.type	gotoedge, %function
 792              	gotoedge:
 793              	.LFB312:
 794              		.cfi_startproc
 795              		@ args = 0, pretend = 0, frame = 8
 796              		@ frame_needed = 0, uses_anonymous_args = 0
 797 0000 00B5     		push	{lr}
 798              		.cfi_def_cfa_offset 4
ARM GAS  /var/folders/z4/49152xh17977x5plrghp70jc0000gn/T//ccjGVwIo.s 			page 15


 799              		.cfi_offset 14, -4
 800 0002 074B     		ldr	r3, .L85
 801 0004 83B0     		sub	sp, sp, #12
 802              		.cfi_def_cfa_offset 16
 803 0006 1A68     		ldr	r2, [r3]
 804 0008 0192     		str	r2, [sp, #4]
 805 000a 019A     		ldr	r2, [sp, #4]
 806 000c 1B68     		ldr	r3, [r3]
 807 000e 9A42     		cmp	r2, r3
 808 0010 04D1     		bne	.L84
 809 0012 03B0     		add	sp, sp, #12
 810              		.cfi_remember_state
 811              		.cfi_def_cfa_offset 4
 812              		@ sp needed
 813 0014 5DF804EB 		ldr	lr, [sp], #4
 814              		.cfi_restore 14
 815              		.cfi_def_cfa_offset 0
 816 0018 FFF7FEBF 		b	gotowall
 817              	.L84:
 818              		.cfi_restore_state
 819 001c FFF7FEFF 		bl	__stack_chk_fail
 820              	.L86:
 821              		.align	2
 822              	.L85:
 823 0020 00000000 		.word	__stack_chk_guard
 824              		.cfi_endproc
 825              	.LFE312:
 826              		.size	gotoedge, .-gotoedge
 827              		.section	.text.walltoright,"ax",%progbits
 828              		.align	1
 829              		.p2align 4,,15
 830              		.global	walltoright
 831              		.syntax unified
 832              		.thumb
 833              		.thumb_func
 834              		.fpu fpv4-sp-d16
 835              		.type	walltoright, %function
 836              	walltoright:
 837              	.LFB302:
 838              		.loc 1 135 0
 839              		.cfi_startproc
 840              		@ args = 0, pretend = 0, frame = 8
 841              		@ frame_needed = 0, uses_anonymous_args = 0
 842              		.loc 1 135 0
 843 0000 00B5     		push	{lr}
 844              		.cfi_def_cfa_offset 4
 845              		.cfi_offset 14, -4
 846 0002 064B     		ldr	r3, .L91
 847 0004 83B0     		sub	sp, sp, #12
 848              		.cfi_def_cfa_offset 16
 849              		.loc 1 135 0
 850 0006 1A68     		ldr	r2, [r3]
 851 0008 0192     		str	r2, [sp, #4]
 852              		.loc 1 138 0
 853 000a 019A     		ldr	r2, [sp, #4]
 854 000c 1B68     		ldr	r3, [r3]
 855 000e 9A42     		cmp	r2, r3
ARM GAS  /var/folders/z4/49152xh17977x5plrghp70jc0000gn/T//ccjGVwIo.s 			page 16


 856 0010 02D1     		bne	.L90
 857 0012 03B0     		add	sp, sp, #12
 858              		.cfi_remember_state
 859              		.cfi_def_cfa_offset 4
 860              		@ sp needed
 861 0014 5DF804FB 		ldr	pc, [sp], #4
 862              	.L90:
 863              		.cfi_restore_state
 864 0018 FFF7FEFF 		bl	__stack_chk_fail
 865              	.LVL53:
 866              	.L92:
 867              		.align	2
 868              	.L91:
 869 001c 00000000 		.word	__stack_chk_guard
 870              		.cfi_endproc
 871              	.LFE302:
 872              		.size	walltoright, .-walltoright
 873              		.section	.text.turnleft,"ax",%progbits
 874              		.align	1
 875              		.p2align 4,,15
 876              		.global	turnleft
 877              		.syntax unified
 878              		.thumb
 879              		.thumb_func
 880              		.fpu fpv4-sp-d16
 881              		.type	turnleft, %function
 882              	turnleft:
 883              	.LFB314:
 884              		.cfi_startproc
 885              		@ args = 0, pretend = 0, frame = 8
 886              		@ frame_needed = 0, uses_anonymous_args = 0
 887 0000 00B5     		push	{lr}
 888              		.cfi_def_cfa_offset 4
 889              		.cfi_offset 14, -4
 890 0002 074B     		ldr	r3, .L98
 891 0004 83B0     		sub	sp, sp, #12
 892              		.cfi_def_cfa_offset 16
 893 0006 1A68     		ldr	r2, [r3]
 894 0008 0192     		str	r2, [sp, #4]
 895 000a 019A     		ldr	r2, [sp, #4]
 896 000c 1B68     		ldr	r3, [r3]
 897 000e 9A42     		cmp	r2, r3
 898 0010 04D1     		bne	.L97
 899 0012 03B0     		add	sp, sp, #12
 900              		.cfi_remember_state
 901              		.cfi_def_cfa_offset 4
 902              		@ sp needed
 903 0014 5DF804EB 		ldr	lr, [sp], #4
 904              		.cfi_restore 14
 905              		.cfi_def_cfa_offset 0
 906 0018 FFF7FEBF 		b	aligntothewall
 907              	.L97:
 908              		.cfi_restore_state
 909 001c FFF7FEFF 		bl	__stack_chk_fail
 910              	.L99:
 911              		.align	2
 912              	.L98:
ARM GAS  /var/folders/z4/49152xh17977x5plrghp70jc0000gn/T//ccjGVwIo.s 			page 17


 913 0020 00000000 		.word	__stack_chk_guard
 914              		.cfi_endproc
 915              	.LFE314:
 916              		.size	turnleft, .-turnleft
 917              		.section	.text.pickupwaste,"ax",%progbits
 918              		.align	1
 919              		.p2align 4,,15
 920              		.global	pickupwaste
 921              		.syntax unified
 922              		.thumb
 923              		.thumb_func
 924              		.fpu fpv4-sp-d16
 925              		.type	pickupwaste, %function
 926              	pickupwaste:
 927              	.LFB304:
 928              		.loc 1 144 0
 929              		.cfi_startproc
 930              		@ args = 0, pretend = 0, frame = 8
 931              		@ frame_needed = 0, uses_anonymous_args = 0
 932              		.loc 1 144 0
 933 0000 10B5     		push	{r4, lr}
 934              		.cfi_def_cfa_offset 8
 935              		.cfi_offset 4, -8
 936              		.cfi_offset 14, -4
 937 0002 0B4C     		ldr	r4, .L105
 938              		.loc 1 145 0
 939 0004 9FED0B0A 		vldr.32	s0, .L105+4
 940              		.loc 1 144 0
 941 0008 2368     		ldr	r3, [r4]
 942 000a 82B0     		sub	sp, sp, #8
 943              		.cfi_def_cfa_offset 16
 944              		.loc 1 145 0
 945 000c 0020     		movs	r0, #0
 946              		.loc 1 144 0
 947 000e 0193     		str	r3, [sp, #4]
 948              		.loc 1 145 0
 949 0010 FFF7FEFF 		bl	goforward
 950              	.LVL54:
 951              	.LBB83:
 952              	.LBB84:
 953 0014 019A     		ldr	r2, [sp, #4]
 954 0016 2368     		ldr	r3, [r4]
 955 0018 9A42     		cmp	r2, r3
 956 001a 06D1     		bne	.L104
 957 001c B7EE000A 		vmov.f32	s0, #1.0e+0
 958              	.LBE84:
 959              	.LBE83:
 960              		.loc 1 150 0
 961 0020 02B0     		add	sp, sp, #8
 962              		.cfi_remember_state
 963              		.cfi_def_cfa_offset 8
 964              		@ sp needed
 965 0022 BDE81040 		pop	{r4, lr}
 966              		.cfi_restore 14
 967              		.cfi_restore 4
 968              		.cfi_def_cfa_offset 0
 969              	.LBB86:
ARM GAS  /var/folders/z4/49152xh17977x5plrghp70jc0000gn/T//ccjGVwIo.s 			page 18


 970              	.LBB85:
 971 0026 FFF7FEBF 		b	goforward.part.0
 972              	.LVL55:
 973              	.L104:
 974              		.cfi_restore_state
 975 002a FFF7FEFF 		bl	__stack_chk_fail
 976              	.LVL56:
 977              	.L106:
 978 002e 00BF     		.align	2
 979              	.L105:
 980 0030 00000000 		.word	__stack_chk_guard
 981 0034 00000000 		.word	0
 982              	.LBE85:
 983              	.LBE86:
 984              		.cfi_endproc
 985              	.LFE304:
 986              		.size	pickupwaste, .-pickupwaste
 987              		.section	.text.goback,"ax",%progbits
 988              		.align	1
 989              		.p2align 4,,15
 990              		.global	goback
 991              		.syntax unified
 992              		.thumb
 993              		.thumb_func
 994              		.fpu fpv4-sp-d16
 995              		.type	goback, %function
 996              	goback:
 997              	.LFB305:
 998              		.loc 1 151 0
 999              		.cfi_startproc
 1000              		@ args = 0, pretend = 0, frame = 8
 1001              		@ frame_needed = 0, uses_anonymous_args = 0
 1002              	.LVL57:
 1003 0000 00B5     		push	{lr}
 1004              		.cfi_def_cfa_offset 4
 1005              		.cfi_offset 14, -4
 1006 0002 064B     		ldr	r3, .L111
 1007 0004 83B0     		sub	sp, sp, #12
 1008              		.cfi_def_cfa_offset 16
 1009              		.loc 1 151 0
 1010 0006 1A68     		ldr	r2, [r3]
 1011 0008 0192     		str	r2, [sp, #4]
 1012              		.loc 1 155 0
 1013 000a 019A     		ldr	r2, [sp, #4]
 1014 000c 1B68     		ldr	r3, [r3]
 1015 000e 9A42     		cmp	r2, r3
 1016 0010 02D1     		bne	.L110
 1017 0012 03B0     		add	sp, sp, #12
 1018              		.cfi_remember_state
 1019              		.cfi_def_cfa_offset 4
 1020              		@ sp needed
 1021 0014 5DF804FB 		ldr	pc, [sp], #4
 1022              	.L110:
 1023              		.cfi_restore_state
 1024 0018 FFF7FEFF 		bl	__stack_chk_fail
 1025              	.LVL58:
 1026              	.L112:
ARM GAS  /var/folders/z4/49152xh17977x5plrghp70jc0000gn/T//ccjGVwIo.s 			page 19


 1027              		.align	2
 1028              	.L111:
 1029 001c 00000000 		.word	__stack_chk_guard
 1030              		.cfi_endproc
 1031              	.LFE305:
 1032              		.size	goback, .-goback
 1033              		.section	.text.shoveldown,"ax",%progbits
 1034              		.align	1
 1035              		.p2align 4,,15
 1036              		.global	shoveldown
 1037              		.syntax unified
 1038              		.thumb
 1039              		.thumb_func
 1040              		.fpu fpv4-sp-d16
 1041              		.type	shoveldown, %function
 1042              	shoveldown:
 1043              	.LFB316:
 1044              		.cfi_startproc
 1045              		@ args = 0, pretend = 0, frame = 8
 1046              		@ frame_needed = 0, uses_anonymous_args = 0
 1047 0000 00B5     		push	{lr}
 1048              		.cfi_def_cfa_offset 4
 1049              		.cfi_offset 14, -4
 1050 0002 064B     		ldr	r3, .L117
 1051 0004 83B0     		sub	sp, sp, #12
 1052              		.cfi_def_cfa_offset 16
 1053 0006 1A68     		ldr	r2, [r3]
 1054 0008 0192     		str	r2, [sp, #4]
 1055 000a 019A     		ldr	r2, [sp, #4]
 1056 000c 1B68     		ldr	r3, [r3]
 1057 000e 9A42     		cmp	r2, r3
 1058 0010 02D1     		bne	.L116
 1059 0012 03B0     		add	sp, sp, #12
 1060              		.cfi_remember_state
 1061              		.cfi_def_cfa_offset 4
 1062              		@ sp needed
 1063 0014 5DF804FB 		ldr	pc, [sp], #4
 1064              	.L116:
 1065              		.cfi_restore_state
 1066 0018 FFF7FEFF 		bl	__stack_chk_fail
 1067              	.L118:
 1068              		.align	2
 1069              	.L117:
 1070 001c 00000000 		.word	__stack_chk_guard
 1071              		.cfi_endproc
 1072              	.LFE316:
 1073              		.size	shoveldown, .-shoveldown
 1074              		.section	.text.shovelup,"ax",%progbits
 1075              		.align	1
 1076              		.p2align 4,,15
 1077              		.global	shovelup
 1078              		.syntax unified
 1079              		.thumb
 1080              		.thumb_func
 1081              		.fpu fpv4-sp-d16
 1082              		.type	shovelup, %function
 1083              	shovelup:
ARM GAS  /var/folders/z4/49152xh17977x5plrghp70jc0000gn/T//ccjGVwIo.s 			page 20


 1084              	.LFB318:
 1085              		.cfi_startproc
 1086              		@ args = 0, pretend = 0, frame = 8
 1087              		@ frame_needed = 0, uses_anonymous_args = 0
 1088 0000 00B5     		push	{lr}
 1089              		.cfi_def_cfa_offset 4
 1090              		.cfi_offset 14, -4
 1091 0002 064B     		ldr	r3, .L123
 1092 0004 83B0     		sub	sp, sp, #12
 1093              		.cfi_def_cfa_offset 16
 1094 0006 1A68     		ldr	r2, [r3]
 1095 0008 0192     		str	r2, [sp, #4]
 1096 000a 019A     		ldr	r2, [sp, #4]
 1097 000c 1B68     		ldr	r3, [r3]
 1098 000e 9A42     		cmp	r2, r3
 1099 0010 02D1     		bne	.L122
 1100 0012 03B0     		add	sp, sp, #12
 1101              		.cfi_remember_state
 1102              		.cfi_def_cfa_offset 4
 1103              		@ sp needed
 1104 0014 5DF804FB 		ldr	pc, [sp], #4
 1105              	.L122:
 1106              		.cfi_restore_state
 1107 0018 FFF7FEFF 		bl	__stack_chk_fail
 1108              	.L124:
 1109              		.align	2
 1110              	.L123:
 1111 001c 00000000 		.word	__stack_chk_guard
 1112              		.cfi_endproc
 1113              	.LFE318:
 1114              		.size	shovelup, .-shovelup
 1115              		.section	.text.gohome,"ax",%progbits
 1116              		.align	1
 1117              		.p2align 4,,15
 1118              		.global	gohome
 1119              		.syntax unified
 1120              		.thumb
 1121              		.thumb_func
 1122              		.fpu fpv4-sp-d16
 1123              		.type	gohome, %function
 1124              	gohome:
 1125              	.LFB308:
 1126              		.loc 1 164 0
 1127              		.cfi_startproc
 1128              		@ Volatile: function does not return.
 1129              		@ args = 0, pretend = 0, frame = 8
 1130              		@ frame_needed = 0, uses_anonymous_args = 0
 1131              		.loc 1 164 0
 1132 0000 00B5     		push	{lr}
 1133              		.cfi_def_cfa_offset 4
 1134              		.cfi_offset 14, -4
 1135 0002 034B     		ldr	r3, .L129
 1136 0004 83B0     		sub	sp, sp, #12
 1137              		.cfi_def_cfa_offset 16
 1138              		.loc 1 164 0
 1139 0006 1B68     		ldr	r3, [r3]
 1140 0008 0193     		str	r3, [sp, #4]
ARM GAS  /var/folders/z4/49152xh17977x5plrghp70jc0000gn/T//ccjGVwIo.s 			page 21


 1141              	.LBB87:
 1142              	.LBB88:
 1143              		.loc 1 129 0
 1144 000a FFF7FEFF 		bl	gotowall
 1145              	.LVL59:
 1146              	.L126:
 1147 000e FEE7     		b	.L126
 1148              	.L130:
 1149              		.align	2
 1150              	.L129:
 1151 0010 00000000 		.word	__stack_chk_guard
 1152              	.LBE88:
 1153              	.LBE87:
 1154              		.cfi_endproc
 1155              	.LFE308:
 1156              		.size	gohome, .-gohome
 1157              		.section	.text.throwwaste,"ax",%progbits
 1158              		.align	1
 1159              		.p2align 4,,15
 1160              		.global	throwwaste
 1161              		.syntax unified
 1162              		.thumb
 1163              		.thumb_func
 1164              		.fpu fpv4-sp-d16
 1165              		.type	throwwaste, %function
 1166              	throwwaste:
 1167              	.LFB320:
 1168              		.cfi_startproc
 1169              		@ args = 0, pretend = 0, frame = 8
 1170              		@ frame_needed = 0, uses_anonymous_args = 0
 1171 0000 00B5     		push	{lr}
 1172              		.cfi_def_cfa_offset 4
 1173              		.cfi_offset 14, -4
 1174 0002 064B     		ldr	r3, .L135
 1175 0004 83B0     		sub	sp, sp, #12
 1176              		.cfi_def_cfa_offset 16
 1177 0006 1A68     		ldr	r2, [r3]
 1178 0008 0192     		str	r2, [sp, #4]
 1179 000a 019A     		ldr	r2, [sp, #4]
 1180 000c 1B68     		ldr	r3, [r3]
 1181 000e 9A42     		cmp	r2, r3
 1182 0010 02D1     		bne	.L134
 1183 0012 03B0     		add	sp, sp, #12
 1184              		.cfi_remember_state
 1185              		.cfi_def_cfa_offset 4
 1186              		@ sp needed
 1187 0014 5DF804FB 		ldr	pc, [sp], #4
 1188              	.L134:
 1189              		.cfi_restore_state
 1190 0018 FFF7FEFF 		bl	__stack_chk_fail
 1191              	.L136:
 1192              		.align	2
 1193              	.L135:
 1194 001c 00000000 		.word	__stack_chk_guard
 1195              		.cfi_endproc
 1196              	.LFE320:
 1197              		.size	throwwaste, .-throwwaste
ARM GAS  /var/folders/z4/49152xh17977x5plrghp70jc0000gn/T//ccjGVwIo.s 			page 22


 1198              		.global	name
 1199              		.section	.bss.name,"aw",%nobits
 1200              		.type	name, %object
 1201              		.size	name, 1
 1202              	name:
 1203 0000 00       		.space	1
 1204              		.section	.bss.state.14776,"aw",%nobits
 1205              		.set	.LANCHOR0,. + 0
 1206              		.type	state.14776, %object
 1207              		.size	state.14776, 1
 1208              	state.14776:
 1209 0000 00       		.space	1
 1210              		.text
 1211              	.Letext0:
 1212              		.file 2 "/Applications/Eclipse_e-puck2.app/Contents/Eclipse_e-puck2/Tools/gcc-arm-none-eabi-7-2017
 1213              		.file 3 "/Applications/Eclipse_e-puck2.app/Contents/Eclipse_e-puck2/Tools/gcc-arm-none-eabi-7-2017
 1214              		.file 4 "/Applications/Eclipse_e-puck2.app/Contents/Eclipse_e-puck2/Tools/gcc-arm-none-eabi-7-2017
 1215              		.file 5 "/Applications/Eclipse_e-puck2.app/Contents/Eclipse_e-puck2/Tools/gcc-arm-none-eabi-7-2017
 1216              		.file 6 "/Applications/Eclipse_e-puck2.app/Contents/Eclipse_e-puck2/Tools/gcc-arm-none-eabi-7-2017
 1217              		.file 7 "/Applications/Eclipse_e-puck2.app/Contents/Eclipse_e-puck2/Tools/gcc-arm-none-eabi-7-2017
 1218              		.file 8 "/Applications/Eclipse_e-puck2.app/Contents/Eclipse_e-puck2/Tools/gcc-arm-none-eabi-7-2017
 1219              		.file 9 "../lib/e-puck2_main-processor/ChibiOS//os/rt/ports/ARMCMx/compilers/GCC/chtypes.h"
 1220              		.file 10 "../lib/e-puck2_main-processor/ChibiOS//os/rt/include/chsystypes.h"
 1221              		.file 11 "../lib/e-puck2_main-processor/ChibiOS//os/rt/include/chschd.h"
 1222              		.file 12 "../lib/e-puck2_main-processor/ChibiOS//os/ext/CMSIS/include/core_cm4.h"
 1223              		.file 13 "../lib/e-puck2_main-processor/ChibiOS//os/ext/CMSIS/ST/system_stm32f4xx.h"
 1224              		.file 14 "../lib/e-puck2_main-processor/ChibiOS//os/ext/CMSIS/ST/stm32f407xx.h"
 1225              		.file 15 "../lib/e-puck2_main-processor/ChibiOS//os/rt/ports/ARMCMx/chcore.h"
 1226              		.file 16 "../lib/e-puck2_main-processor/ChibiOS//os/rt/ports/ARMCMx/chcore_v7m.h"
 1227              		.file 17 "../lib/e-puck2_main-processor/ChibiOS//os/rt/include/chdebug.h"
 1228              		.file 18 "../lib/e-puck2_main-processor/ChibiOS//os/rt/include/chtm.h"
 1229              		.file 19 "../lib/e-puck2_main-processor/ChibiOS//os/rt/include/chstats.h"
 1230              		.file 20 "../lib/e-puck2_main-processor/ChibiOS//os/rt/include/chsem.h"
 1231              		.file 21 "../lib/e-puck2_main-processor/ChibiOS//os/rt/include/chmtx.h"
 1232              		.file 22 "../lib/e-puck2_main-processor/ChibiOS//os/rt/include/chregistry.h"
 1233              		.file 23 "../lib/e-puck2_main-processor/ChibiOS//os/rt/include/chevents.h"
 1234              		.file 24 "../lib/e-puck2_main-processor/ChibiOS//os/rt/include/chqueues.h"
 1235              		.file 25 "../lib/e-puck2_main-processor/ChibiOS//os/hal/ports/STM32/STM32F4xx/stm32_dma.h"
 1236              		.file 26 "../lib/e-puck2_main-processor/ChibiOS//os/hal/include/hal_ioblock.h"
 1237              		.file 27 "../lib/e-puck2_main-processor/ChibiOS//os/hal/ports/STM32/LLD/GPIOv2/pal_lld.h"
 1238              		.file 28 "../lib/e-puck2_main-processor/ChibiOS//os/hal/include/adc.h"
 1239              		.file 29 "../lib/e-puck2_main-processor/ChibiOS//os/hal/ports/STM32/STM32F4xx/adc_lld.h"
 1240              		.file 30 "../lib/e-puck2_main-processor/ChibiOS//os/hal/include/can.h"
 1241              		.file 31 "../lib/e-puck2_main-processor/ChibiOS//os/hal/ports/STM32/LLD/can_lld.h"
 1242              		.file 32 "../lib/e-puck2_main-processor/ChibiOS//os/hal/include/dac.h"
 1243              		.file 33 "../lib/e-puck2_main-processor/ChibiOS//os/hal/ports/STM32/LLD/DACv1/dac_lld.h"
 1244              		.file 34 "../lib/e-puck2_main-processor/ChibiOS//os/hal/include/ext.h"
 1245              		.file 35 "../lib/e-puck2_main-processor/ChibiOS//os/hal/ports/STM32/LLD/ext_lld.h"
 1246              		.file 36 "../lib/e-puck2_main-processor/ChibiOS//os/hal/include/gpt.h"
 1247              		.file 37 "../lib/e-puck2_main-processor/ChibiOS//os/hal/ports/STM32/LLD/TIMv1/gpt_lld.h"
 1248              		.file 38 "../lib/e-puck2_main-processor/ChibiOS//os/hal/ports/STM32/LLD/TIMv1/stm32_tim.h"
 1249              		.file 39 "../lib/e-puck2_main-processor/ChibiOS//os/hal/include/i2c.h"
 1250              		.file 40 "../lib/e-puck2_main-processor/ChibiOS//os/hal/ports/STM32/LLD/I2Cv1/i2c_lld.h"
 1251              		.file 41 "../lib/e-puck2_main-processor/ChibiOS//os/hal/include/i2s.h"
 1252              		.file 42 "../lib/e-puck2_main-processor/ChibiOS//os/hal/ports/STM32/LLD/SPIv1/i2s_lld.h"
 1253              		.file 43 "../lib/e-puck2_main-processor/ChibiOS//os/hal/include/pwm.h"
 1254              		.file 44 "../lib/e-puck2_main-processor/ChibiOS//os/hal/ports/STM32/LLD/TIMv1/pwm_lld.h"
ARM GAS  /var/folders/z4/49152xh17977x5plrghp70jc0000gn/T//ccjGVwIo.s 			page 23


 1255              		.file 45 "../lib/e-puck2_main-processor/ChibiOS//os/hal/include/serial.h"
 1256              		.file 46 "../lib/e-puck2_main-processor/ChibiOS//os/hal/ports/STM32/LLD/USARTv1/serial_lld.h"
 1257              		.file 47 "../lib/e-puck2_main-processor/ChibiOS//os/hal/include/sdc.h"
 1258              		.file 48 "../lib/e-puck2_main-processor/ChibiOS//os/hal/ports/STM32/LLD/sdc_lld.h"
 1259              		.file 49 "../lib/e-puck2_main-processor/ChibiOS//os/hal/include/spi.h"
 1260              		.file 50 "../lib/e-puck2_main-processor/ChibiOS//os/hal/ports/STM32/LLD/SPIv1/spi_lld.h"
 1261              		.file 51 "../lib/e-puck2_main-processor/ChibiOS//os/hal/include/usb.h"
 1262              		.file 52 "../lib/e-puck2_main-processor/ChibiOS//os/hal/ports/STM32/LLD/OTGv1/usb_lld.h"
 1263              		.file 53 "../lib/e-puck2_main-processor/ChibiOS//os/hal/ports/STM32/LLD/OTGv1/stm32_otg.h"
 1264              		.file 54 "../lib/e-puck2_main-processor/ChibiOS//os/hal/include/serial_usb.h"
 1265              		.file 55 "../lib/e-puck2_main-processor/src/usbcfg.h"
 1266              		.file 56 "./audio_processing.h"
 1267              		.file 57 "/Applications/Eclipse_e-puck2.app/Contents/Eclipse_e-puck2/Tools/gcc-arm-none-eabi-7-201
 1268              		.file 58 "motors_advanced.h"
 1269              		.file 59 "../lib/e-puck2_main-processor/ChibiOS//os/rt/include/chthreads.h"
 1270              		.file 60 "../lib/e-puck2_main-processor/src/sensors/VL53L0X/VL53L0X.h"