ARM GAS  /var/folders/z4/49152xh17977x5plrghp70jc0000gn/T//cclL6jgc.s 			page 1


   1              		.cpu cortex-m4
   2              		.eabi_attribute 27, 1
   3              		.eabi_attribute 28, 1
   4              		.eabi_attribute 20, 1
   5              		.eabi_attribute 21, 1
   6              		.eabi_attribute 23, 3
   7              		.eabi_attribute 24, 1
   8              		.eabi_attribute 25, 1
   9              		.eabi_attribute 26, 1
  10              		.eabi_attribute 30, 2
  11              		.eabi_attribute 34, 1
  12              		.eabi_attribute 18, 4
  13              		.file	"audio_processing.c"
  14              		.text
  15              	.Ltext0:
  16              		.cfi_sections	.debug_frame
  17              		.section	.text.processAudioData,"ax",%progbits
  18              		.align	1
  19              		.p2align 4,,15
  20              		.global	processAudioData
  21              		.syntax unified
  22              		.thumb
  23              		.thumb_func
  24              		.fpu fpv4-sp-d16
  25              		.type	processAudioData, %function
  26              	processAudioData:
  27              	.LFB292:
  28              		.file 1 "audio_processing.c"
  29              		.loc 1 66 0
  30              		.cfi_startproc
  31              		@ args = 0, pretend = 0, frame = 8
  32              		@ frame_needed = 0, uses_anonymous_args = 0
  33              	.LVL0:
  34 0000 F0B5     		push	{r4, r5, r6, r7, lr}
  35              		.cfi_def_cfa_offset 20
  36              		.cfi_offset 4, -20
  37              		.cfi_offset 5, -16
  38              		.cfi_offset 6, -12
  39              		.cfi_offset 7, -8
  40              		.cfi_offset 14, -4
  41              		.loc 1 68 0
  42 0002 574B     		ldr	r3, .L31
  43              		.loc 1 66 0
  44 0004 574C     		ldr	r4, .L31+4
  45              		.loc 1 68 0
  46 0006 1B78     		ldrb	r3, [r3]	@ zero_extendqisi2
  47              		.loc 1 66 0
  48 0008 2268     		ldr	r2, [r4]
  49 000a 83B0     		sub	sp, sp, #12
  50              		.cfi_def_cfa_offset 32
  51              		.loc 1 66 0
  52 000c 0192     		str	r2, [sp, #4]
  53              		.loc 1 68 0
  54 000e 002B     		cmp	r3, #0
  55 0010 43D0     		beq	.L1
  56              	.LVL1:
  57 0012 554D     		ldr	r5, .L31+8
ARM GAS  /var/folders/z4/49152xh17977x5plrghp70jc0000gn/T//cclL6jgc.s 			page 2


  58 0014 2B88     		ldrh	r3, [r5]
  59              	.LBB59:
  60              		.loc 1 75 0
  61 0016 0029     		cmp	r1, #0
  62 0018 00F09680 		beq	.L4
  63              		.loc 1 77 0
  64 001c B0F90220 		ldrsh	r2, [r0, #2]
  65 0020 524E     		ldr	r6, .L31+12
  66 0022 07EE902A 		vmov	s15, r2	@ int
  67              		.loc 1 79 0
  68 0026 5A1C     		adds	r2, r3, #1
  69              		.loc 1 77 0
  70 0028 06EB8307 		add	r7, r6, r3, lsl #2
  71              		.loc 1 81 0
  72 002c 92B2     		uxth	r2, r2
  73              		.loc 1 82 0
  74 002e 0233     		adds	r3, r3, #2
  75 0030 9BB2     		uxth	r3, r3
  76              		.loc 1 77 0
  77 0032 F8EEE77A 		vcvt.f32.s32	s15, s15
  78              		.loc 1 81 0
  79 0036 06EB8202 		add	r2, r6, r2, lsl #2
  80 003a 4FF0000E 		mov	lr, #0
  81              		.loc 1 85 0
  82 003e B3F5006F 		cmp	r3, #2048
  83              		.loc 1 77 0
  84 0042 C7ED007A 		vstr.32	s15, [r7]
  85              		.loc 1 82 0
  86 0046 2B80     		strh	r3, [r5]	@ movhi
  87              		.loc 1 81 0
  88 0048 C2F800E0 		str	lr, [r2]	@ float
  89              		.loc 1 85 0
  90 004c 2CD2     		bcs	.L5
  91 004e 0139     		subs	r1, r1, #1
  92              	.LVL2:
  93 0050 C1F38D01 		ubfx	r1, r1, #2, #14
  94 0054 00EBC101 		add	r1, r0, r1, lsl #3
  95 0058 0027     		movs	r7, #0
  96 005a 1AE0     		b	.L6
  97              	.LVL3:
  98              	.L8:
  99              		.loc 1 77 0
 100 005c B0F90A20 		ldrsh	r2, [r0, #10]
 101 0060 07EE902A 		vmov	s15, r2	@ int
 102              		.loc 1 81 0
 103 0064 5A1C     		adds	r2, r3, #1
 104 0066 92B2     		uxth	r2, r2
 105              		.loc 1 82 0
 106 0068 03F1020C 		add	ip, r3, #2
 107              		.loc 1 77 0
 108 006c 06EB8307 		add	r7, r6, r3, lsl #2
 109 0070 F8EEE77A 		vcvt.f32.s32	s15, s15
 110              		.loc 1 81 0
 111 0074 06EB8202 		add	r2, r6, r2, lsl #2
 112              		.loc 1 82 0
 113 0078 1FFA8CF3 		uxth	r3, ip
 114              		.loc 1 85 0
ARM GAS  /var/folders/z4/49152xh17977x5plrghp70jc0000gn/T//cclL6jgc.s 			page 3


 115 007c B3F5006F 		cmp	r3, #2048
 116              		.loc 1 77 0
 117 0080 C7ED007A 		vstr.32	s15, [r7]
 118 0084 00F10800 		add	r0, r0, #8
 119 0088 4FF00107 		mov	r7, #1
 120              		.loc 1 81 0
 121 008c C2F800E0 		str	lr, [r2]	@ float
 122              		.loc 1 85 0
 123 0090 09D2     		bcs	.L7
 124              	.L6:
 125              		.loc 1 75 0 discriminator 2
 126 0092 8142     		cmp	r1, r0
 127 0094 E2D1     		bne	.L8
 128 0096 002F     		cmp	r7, #0
 129 0098 5FD1     		bne	.L27
 130              	.L1:
 131              	.LBE59:
 132              		.loc 1 122 0
 133 009a 019A     		ldr	r2, [sp, #4]
 134 009c 2368     		ldr	r3, [r4]
 135 009e 9A42     		cmp	r2, r3
 136 00a0 59D1     		bne	.L28
 137 00a2 03B0     		add	sp, sp, #12
 138              		.cfi_remember_state
 139              		.cfi_def_cfa_offset 20
 140              		@ sp needed
 141 00a4 F0BD     		pop	{r4, r5, r6, r7, pc}
 142              	.L7:
 143              		.cfi_restore_state
 144 00a6 2B80     		strh	r3, [r5]	@ movhi
 145              	.L5:
 146              	.LVL4:
 147              	.LBB60:
 148              	.LBB61:
 149              		.loc 1 97 0
 150 00a8 3049     		ldr	r1, .L31+12
 151              		.loc 1 112 0
 152 00aa 314E     		ldr	r6, .L31+16
 153              		.loc 1 97 0
 154 00ac 4FF48060 		mov	r0, #1024
 155 00b0 FFF7FEFF 		bl	doFFT_optimized
 156              	.LVL5:
 157              		.loc 1 107 0
 158 00b4 4FF48062 		mov	r2, #1024
 159 00b8 2E49     		ldr	r1, .L31+20
 160 00ba 2C48     		ldr	r0, .L31+12
 161 00bc FFF7FEFF 		bl	arm_cmplx_mag_f32
 162              	.LVL6:
 163              		.loc 1 112 0
 164 00c0 3378     		ldrb	r3, [r6]	@ zero_extendqisi2
 165 00c2 082B     		cmp	r3, #8
 166 00c4 1CD8     		bhi	.L29
 167 00c6 0133     		adds	r3, r3, #1
 168 00c8 DBB2     		uxtb	r3, r3
 169              	.L10:
 170              		.loc 1 117 0
 171 00ca 0021     		movs	r1, #0
ARM GAS  /var/folders/z4/49152xh17977x5plrghp70jc0000gn/T//cclL6jgc.s 			page 4


 172              	.LBB62:
 173              	.LBB63:
 174              		.loc 1 44 0
 175 00cc 9FED2A7A 		vldr.32	s14, .L31+24
 176 00d0 2A4A     		ldr	r2, .L31+28
 177              	.LBE63:
 178              	.LBE62:
 179              		.loc 1 118 0
 180 00d2 3370     		strb	r3, [r6]
 181              	.LVL7:
 182              		.loc 1 117 0
 183 00d4 2980     		strh	r1, [r5]	@ movhi
 184              		.loc 1 118 0
 185 00d6 0A23     		movs	r3, #10
 186              	.LBB66:
 187              	.LBB65:
 188              		.loc 1 45 0
 189 00d8 4FF0FF31 		mov	r1, #-1
 190              	.LVL8:
 191              	.L15:
 192              	.LBB64:
 193              		.loc 1 49 0
 194 00dc F2EC017A 		vldmia.32	r2!, {s15}
 195 00e0 F4EEC77A 		vcmpe.f32	s15, s14
 196 00e4 F1EE10FA 		vmrs	APSR_nzcv, FPSCR
 197              	.LVL9:
 198              		.loc 1 51 0
 199 00e8 C8BF     		it	gt
 200 00ea 19B2     		sxthgt	r1, r3
 201              	.LVL10:
 202 00ec 03F10103 		add	r3, r3, #1
 203              	.LVL11:
 204              		.loc 1 50 0
 205 00f0 C8BF     		it	gt
 206 00f2 B0EE677A 		vmovgt.f32	s14, s15
 207              	.LVL12:
 208              		.loc 1 48 0
 209 00f6 1F2B     		cmp	r3, #31
 210 00f8 F0D1     		bne	.L15
 211              	.LVL13:
 212              	.LBE64:
 213              	.LBE65:
 214              	.LBE66:
 215              		.loc 1 120 0
 216 00fa 214B     		ldr	r3, .L31+32
 217 00fc 1960     		str	r1, [r3]
 218 00fe CCE7     		b	.L1
 219              	.L29:
 220              	.LVL14:
 221              	.LBB67:
 222              	.LBB68:
 223              	.LBB69:
 224              	.LBB70:
 225              	.LBB71:
 226              	.LBB72:
 227              	.LBB73:
 228              		.file 2 "../lib/e-puck2_main-processor/ChibiOS//os/ext/CMSIS/include/core_cmFunc.h"
ARM GAS  /var/folders/z4/49152xh17977x5plrghp70jc0000gn/T//cclL6jgc.s 			page 5


 229              		.loc 2 546 0
 230 0100 2023     		movs	r3, #32
 231              		.syntax unified
 232              	@ 546 "../lib/e-puck2_main-processor/ChibiOS//os/ext/CMSIS/include/core_cmFunc.h" 1
 233 0102 83F31188 		MSR basepri, r3
 234              	@ 0 "" 2
 235              	.LVL15:
 236              		.thumb
 237              		.syntax unified
 238              	.LBE73:
 239              	.LBE72:
 240              	.LBE71:
 241              		.file 3 "../lib/e-puck2_main-processor/ChibiOS//os/rt/include/chsys.h"
 242              		.loc 3 349 0
 243 0106 FFF7FEFF 		bl	_stats_start_measure_crit_thd
 244              	.LVL16:
 245              		.loc 3 350 0
 246 010a FFF7FEFF 		bl	_dbg_check_lock
 247              	.LVL17:
 248              	.LBE70:
 249              	.LBE69:
 250              	.LBB74:
 251              	.LBB75:
 252              		.file 4 "../lib/e-puck2_main-processor/ChibiOS//os/rt/include/chbsem.h"
 253              		.loc 4 268 0
 254 010e FFF7FEFF 		bl	chDbgCheckClassI
 255              	.LVL18:
 256              		.loc 4 270 0
 257 0112 1C48     		ldr	r0, .L31+36
 258 0114 8368     		ldr	r3, [r0, #8]
 259 0116 002B     		cmp	r3, #0
 260 0118 1ADD     		ble	.L30
 261              	.L11:
 262              	.LVL19:
 263              	.LBE75:
 264              	.LBE74:
 265              		.loc 4 286 0
 266 011a FFF7FEFF 		bl	chSchRescheduleS
 267              	.LVL20:
 268              	.LBB77:
 269              	.LBB78:
 270              		.loc 3 360 0
 271 011e FFF7FEFF 		bl	_dbg_check_unlock
 272              	.LVL21:
 273              		.loc 3 361 0
 274 0122 FFF7FEFF 		bl	_stats_stop_measure_crit_thd
 275              	.LVL22:
 276              		.loc 3 367 0
 277 0126 184B     		ldr	r3, .L31+40
 278 0128 1A68     		ldr	r2, [r3]
 279 012a 9A42     		cmp	r2, r3
 280 012c 07D0     		beq	.L12
 281 012e 9969     		ldr	r1, [r3, #24]
 282 0130 9368     		ldr	r3, [r2, #8]
 283 0132 8A68     		ldr	r2, [r1, #8]
 284 0134 9A42     		cmp	r2, r3
 285 0136 02D2     		bcs	.L12
ARM GAS  /var/folders/z4/49152xh17977x5plrghp70jc0000gn/T//cclL6jgc.s 			page 6


 286 0138 1448     		ldr	r0, .L31+44
 287 013a FFF7FEFF 		bl	chSysHalt
 288              	.LVL23:
 289              	.L12:
 290              	.LBB79:
 291              	.LBB80:
 292              	.LBB81:
 293              		.loc 2 546 0
 294 013e 0023     		movs	r3, #0
 295              		.syntax unified
 296              	@ 546 "../lib/e-puck2_main-processor/ChibiOS//os/ext/CMSIS/include/core_cmFunc.h" 1
 297 0140 83F31188 		MSR basepri, r3
 298              	@ 0 "" 2
 299              	.LVL24:
 300              		.thumb
 301              		.syntax unified
 302 0144 0123     		movs	r3, #1
 303 0146 C0E7     		b	.L10
 304              	.LVL25:
 305              	.L4:
 306              	.LBE81:
 307              	.LBE80:
 308              	.LBE79:
 309              	.LBE78:
 310              	.LBE77:
 311              	.LBE68:
 312              	.LBE67:
 313              	.LBE61:
 314              	.LBE60:
 315              		.loc 1 90 0
 316 0148 B3F5006F 		cmp	r3, #2048
 317 014c A5D3     		bcc	.L1
 318 014e ABE7     		b	.L5
 319              	.LVL26:
 320              	.L30:
 321              	.LBB86:
 322              	.LBB85:
 323              	.LBB84:
 324              	.LBB83:
 325              	.LBB82:
 326              	.LBB76:
 327              		.loc 4 271 0
 328 0150 FFF7FEFF 		bl	chSemSignalI
 329              	.LVL27:
 330 0154 E1E7     		b	.L11
 331              	.LVL28:
 332              	.L28:
 333              	.LBE76:
 334              	.LBE82:
 335              	.LBE83:
 336              	.LBE84:
 337              	.LBE85:
 338              	.LBE86:
 339              		.loc 1 122 0
 340 0156 FFF7FEFF 		bl	__stack_chk_fail
 341              	.LVL29:
 342              	.L27:
ARM GAS  /var/folders/z4/49152xh17977x5plrghp70jc0000gn/T//cclL6jgc.s 			page 7


 343 015a 2B80     		strh	r3, [r5]	@ movhi
 344 015c 9DE7     		b	.L1
 345              	.L32:
 346 015e 00BF     		.align	2
 347              	.L31:
 348 0160 00000000 		.word	.LANCHOR0
 349 0164 00000000 		.word	__stack_chk_guard
 350 0168 00000000 		.word	.LANCHOR1
 351 016c 00000000 		.word	micLeft_cmplx_input
 352 0170 00000000 		.word	.LANCHOR4
 353 0174 00000000 		.word	micLeft_output
 354 0178 00401C46 		.word	1176256512
 355 017c 28000000 		.word	micLeft_output+40
 356 0180 00000000 		.word	.LANCHOR5
 357 0184 00000000 		.word	.LANCHOR2
 358 0188 00000000 		.word	ch
 359 018c 00000000 		.word	.LANCHOR3
 360              		.cfi_endproc
 361              	.LFE292:
 362              		.size	processAudioData, .-processAudioData
 363              		.section	.text.set_mic_state,"ax",%progbits
 364              		.align	1
 365              		.p2align 4,,15
 366              		.global	set_mic_state
 367              		.syntax unified
 368              		.thumb
 369              		.thumb_func
 370              		.fpu fpv4-sp-d16
 371              		.type	set_mic_state, %function
 372              	set_mic_state:
 373              	.LFB290:
 374              		.loc 1 35 0
 375              		.cfi_startproc
 376              		@ args = 0, pretend = 0, frame = 8
 377              		@ frame_needed = 0, uses_anonymous_args = 0
 378              	.LVL30:
 379 0000 00B5     		push	{lr}
 380              		.cfi_def_cfa_offset 4
 381              		.cfi_offset 14, -4
 382 0002 074B     		ldr	r3, .L37
 383              		.loc 1 36 0
 384 0004 0749     		ldr	r1, .L37+4
 385              		.loc 1 35 0
 386 0006 1A68     		ldr	r2, [r3]
 387              		.loc 1 36 0
 388 0008 0870     		strb	r0, [r1]
 389              		.loc 1 35 0
 390 000a 83B0     		sub	sp, sp, #12
 391              		.cfi_def_cfa_offset 16
 392              		.loc 1 35 0
 393 000c 0192     		str	r2, [sp, #4]
 394              		.loc 1 37 0
 395 000e 019A     		ldr	r2, [sp, #4]
 396 0010 1B68     		ldr	r3, [r3]
 397 0012 9A42     		cmp	r2, r3
 398 0014 02D1     		bne	.L36
 399 0016 03B0     		add	sp, sp, #12
ARM GAS  /var/folders/z4/49152xh17977x5plrghp70jc0000gn/T//cclL6jgc.s 			page 8


 400              		.cfi_remember_state
 401              		.cfi_def_cfa_offset 4
 402              		@ sp needed
 403 0018 5DF804FB 		ldr	pc, [sp], #4
 404              	.L36:
 405              		.cfi_restore_state
 406 001c FFF7FEFF 		bl	__stack_chk_fail
 407              	.LVL31:
 408              	.L38:
 409              		.align	2
 410              	.L37:
 411 0020 00000000 		.word	__stack_chk_guard
 412 0024 00000000 		.word	.LANCHOR0
 413              		.cfi_endproc
 414              	.LFE290:
 415              		.size	set_mic_state, .-set_mic_state
 416              		.section	.text.sound_remote,"ax",%progbits
 417              		.align	1
 418              		.p2align 4,,15
 419              		.global	sound_remote
 420              		.syntax unified
 421              		.thumb
 422              		.thumb_func
 423              		.fpu fpv4-sp-d16
 424              		.type	sound_remote, %function
 425              	sound_remote:
 426              	.LFB291:
 427              		.loc 1 43 0
 428              		.cfi_startproc
 429              		@ args = 0, pretend = 0, frame = 8
 430              		@ frame_needed = 0, uses_anonymous_args = 0
 431              	.LVL32:
 432 0000 00B5     		push	{lr}
 433              		.cfi_def_cfa_offset 4
 434              		.cfi_offset 14, -4
 435 0002 1149     		ldr	r1, .L48
 436              		.loc 1 44 0
 437 0004 9FED117A 		vldr.32	s14, .L48+4
 438              		.loc 1 43 0
 439 0008 0B68     		ldr	r3, [r1]
 440 000a 83B0     		sub	sp, sp, #12
 441              		.cfi_def_cfa_offset 16
 442 000c 00F12802 		add	r2, r0, #40
 443              		.loc 1 43 0
 444 0010 0193     		str	r3, [sp, #4]
 445              	.LVL33:
 446              		.loc 1 45 0
 447 0012 4FF0FF30 		mov	r0, #-1
 448              	.LVL34:
 449              		.loc 1 43 0
 450 0016 0A23     		movs	r3, #10
 451              	.LVL35:
 452              	.L42:
 453              	.LBB87:
 454              		.loc 1 49 0
 455 0018 F2EC017A 		vldmia.32	r2!, {s15}
 456 001c F4EEC77A 		vcmpe.f32	s15, s14
ARM GAS  /var/folders/z4/49152xh17977x5plrghp70jc0000gn/T//cclL6jgc.s 			page 9


 457 0020 F1EE10FA 		vmrs	APSR_nzcv, FPSCR
 458              	.LVL36:
 459              		.loc 1 51 0
 460 0024 C8BF     		it	gt
 461 0026 18B2     		sxthgt	r0, r3
 462              	.LVL37:
 463 0028 03F10103 		add	r3, r3, #1
 464              	.LVL38:
 465              		.loc 1 50 0
 466 002c C8BF     		it	gt
 467 002e B0EE677A 		vmovgt.f32	s14, s15
 468              	.LVL39:
 469              		.loc 1 48 0
 470 0032 1F2B     		cmp	r3, #31
 471 0034 F0D1     		bne	.L42
 472              	.LBE87:
 473              		.loc 1 55 0
 474 0036 019A     		ldr	r2, [sp, #4]
 475 0038 0B68     		ldr	r3, [r1]
 476 003a 9A42     		cmp	r2, r3
 477 003c 02D1     		bne	.L47
 478 003e 03B0     		add	sp, sp, #12
 479              		.cfi_remember_state
 480              		.cfi_def_cfa_offset 4
 481              		@ sp needed
 482 0040 5DF804FB 		ldr	pc, [sp], #4
 483              	.L47:
 484              		.cfi_restore_state
 485 0044 FFF7FEFF 		bl	__stack_chk_fail
 486              	.LVL40:
 487              	.L49:
 488              		.align	2
 489              	.L48:
 490 0048 00000000 		.word	__stack_chk_guard
 491 004c 00401C46 		.word	1176256512
 492              		.cfi_endproc
 493              	.LFE291:
 494              		.size	sound_remote, .-sound_remote
 495              		.section	.text.wait_send_to_computer,"ax",%progbits
 496              		.align	1
 497              		.p2align 4,,15
 498              		.global	wait_send_to_computer
 499              		.syntax unified
 500              		.thumb
 501              		.thumb_func
 502              		.fpu fpv4-sp-d16
 503              		.type	wait_send_to_computer, %function
 504              	wait_send_to_computer:
 505              	.LFB293:
 506              		.loc 1 124 0
 507              		.cfi_startproc
 508              		@ args = 0, pretend = 0, frame = 8
 509              		@ frame_needed = 0, uses_anonymous_args = 0
 510 0000 00B5     		push	{lr}
 511              		.cfi_def_cfa_offset 4
 512              		.cfi_offset 14, -4
 513 0002 084B     		ldr	r3, .L55
ARM GAS  /var/folders/z4/49152xh17977x5plrghp70jc0000gn/T//cclL6jgc.s 			page 10


 514 0004 83B0     		sub	sp, sp, #12
 515              		.cfi_def_cfa_offset 16
 516              		.loc 1 124 0
 517 0006 1A68     		ldr	r2, [r3]
 518 0008 0192     		str	r2, [sp, #4]
 519              	.LVL41:
 520              	.LBB88:
 521              	.LBB89:
 522              		.loc 4 143 0
 523 000a 019A     		ldr	r2, [sp, #4]
 524 000c 1B68     		ldr	r3, [r3]
 525 000e 9A42     		cmp	r2, r3
 526 0010 05D1     		bne	.L54
 527 0012 0548     		ldr	r0, .L55+4
 528              	.LBE89:
 529              	.LBE88:
 530              		.loc 1 126 0
 531 0014 03B0     		add	sp, sp, #12
 532              		.cfi_remember_state
 533              		.cfi_def_cfa_offset 4
 534              		@ sp needed
 535 0016 5DF804EB 		ldr	lr, [sp], #4
 536              		.cfi_restore 14
 537              		.cfi_def_cfa_offset 0
 538              	.LBB91:
 539              	.LBB90:
 540              		.loc 4 143 0
 541 001a FFF7FEBF 		b	chSemWait
 542              	.LVL42:
 543              	.L54:
 544              		.cfi_restore_state
 545 001e FFF7FEFF 		bl	__stack_chk_fail
 546              	.LVL43:
 547              	.L56:
 548 0022 00BF     		.align	2
 549              	.L55:
 550 0024 00000000 		.word	__stack_chk_guard
 551 0028 00000000 		.word	.LANCHOR2
 552              	.LBE90:
 553              	.LBE91:
 554              		.cfi_endproc
 555              	.LFE293:
 556              		.size	wait_send_to_computer, .-wait_send_to_computer
 557              		.section	.text.get_audio_buffer_ptr,"ax",%progbits
 558              		.align	1
 559              		.p2align 4,,15
 560              		.global	get_audio_buffer_ptr
 561              		.syntax unified
 562              		.thumb
 563              		.thumb_func
 564              		.fpu fpv4-sp-d16
 565              		.type	get_audio_buffer_ptr, %function
 566              	get_audio_buffer_ptr:
 567              	.LFB294:
 568              		.loc 1 129 0
 569              		.cfi_startproc
 570              		@ args = 0, pretend = 0, frame = 8
ARM GAS  /var/folders/z4/49152xh17977x5plrghp70jc0000gn/T//cclL6jgc.s 			page 11


 571              		@ frame_needed = 0, uses_anonymous_args = 0
 572              	.LVL44:
 573 0000 00B5     		push	{lr}
 574              		.cfi_def_cfa_offset 4
 575              		.cfi_offset 14, -4
 576 0002 0A4A     		ldr	r2, .L64
 577 0004 83B0     		sub	sp, sp, #12
 578              		.cfi_def_cfa_offset 16
 579              		.loc 1 129 0
 580 0006 1368     		ldr	r3, [r2]
 581 0008 0193     		str	r3, [sp, #4]
 582              		.loc 1 130 0
 583 000a 58B1     		cbz	r0, .L60
 584              		.loc 1 137 0
 585 000c 084B     		ldr	r3, .L64+4
 586              		.loc 1 133 0
 587 000e 0428     		cmp	r0, #4
 588              		.loc 1 137 0
 589 0010 0CBF     		ite	eq
 590 0012 1846     		moveq	r0, r3
 591              	.LVL45:
 592 0014 0020     		movne	r0, #0
 593              	.L57:
 594              		.loc 1 139 0
 595 0016 0199     		ldr	r1, [sp, #4]
 596 0018 1368     		ldr	r3, [r2]
 597 001a 9942     		cmp	r1, r3
 598 001c 04D1     		bne	.L63
 599 001e 03B0     		add	sp, sp, #12
 600              		.cfi_remember_state
 601              		.cfi_def_cfa_offset 4
 602              		@ sp needed
 603 0020 5DF804FB 		ldr	pc, [sp], #4
 604              	.LVL46:
 605              	.L60:
 606              		.cfi_restore_state
 607              		.loc 1 131 0
 608 0024 0348     		ldr	r0, .L64+8
 609              	.LVL47:
 610 0026 F6E7     		b	.L57
 611              	.L63:
 612              		.loc 1 139 0
 613 0028 FFF7FEFF 		bl	__stack_chk_fail
 614              	.LVL48:
 615              	.L65:
 616              		.align	2
 617              	.L64:
 618 002c 00000000 		.word	__stack_chk_guard
 619 0030 00000000 		.word	micLeft_output
 620 0034 00000000 		.word	micLeft_cmplx_input
 621              		.cfi_endproc
 622              	.LFE294:
 623              		.size	get_audio_buffer_ptr, .-get_audio_buffer_ptr
 624              		.section	.text.get_frequence,"ax",%progbits
 625              		.align	1
 626              		.p2align 4,,15
 627              		.global	get_frequence
ARM GAS  /var/folders/z4/49152xh17977x5plrghp70jc0000gn/T//cclL6jgc.s 			page 12


 628              		.syntax unified
 629              		.thumb
 630              		.thumb_func
 631              		.fpu fpv4-sp-d16
 632              		.type	get_frequence, %function
 633              	get_frequence:
 634              	.LFB295:
 635              		.loc 1 144 0
 636              		.cfi_startproc
 637              		@ args = 0, pretend = 0, frame = 8
 638              		@ frame_needed = 0, uses_anonymous_args = 0
 639 0000 00B5     		push	{lr}
 640              		.cfi_def_cfa_offset 4
 641              		.cfi_offset 14, -4
 642 0002 084B     		ldr	r3, .L70
 643              		.loc 1 145 0
 644 0004 0849     		ldr	r1, .L70+4
 645              		.loc 1 144 0
 646 0006 1A68     		ldr	r2, [r3]
 647              		.loc 1 146 0
 648 0008 B1F90000 		ldrsh	r0, [r1]
 649              		.loc 1 144 0
 650 000c 83B0     		sub	sp, sp, #12
 651              		.cfi_def_cfa_offset 16
 652              		.loc 1 144 0
 653 000e 0192     		str	r2, [sp, #4]
 654              		.loc 1 146 0
 655 0010 019A     		ldr	r2, [sp, #4]
 656 0012 1B68     		ldr	r3, [r3]
 657 0014 9A42     		cmp	r2, r3
 658 0016 02D1     		bne	.L69
 659 0018 03B0     		add	sp, sp, #12
 660              		.cfi_remember_state
 661              		.cfi_def_cfa_offset 4
 662              		@ sp needed
 663 001a 5DF804FB 		ldr	pc, [sp], #4
 664              	.L69:
 665              		.cfi_restore_state
 666 001e FFF7FEFF 		bl	__stack_chk_fail
 667              	.LVL49:
 668              	.L71:
 669 0022 00BF     		.align	2
 670              	.L70:
 671 0024 00000000 		.word	__stack_chk_guard
 672 0028 00000000 		.word	.LANCHOR5
 673              		.cfi_endproc
 674              	.LFE295:
 675              		.size	get_frequence, .-get_frequence
 676              		.section	.text.start_listening,"ax",%progbits
 677              		.align	1
 678              		.p2align 4,,15
 679              		.global	start_listening
 680              		.syntax unified
 681              		.thumb
 682              		.thumb_func
 683              		.fpu fpv4-sp-d16
 684              		.type	start_listening, %function
ARM GAS  /var/folders/z4/49152xh17977x5plrghp70jc0000gn/T//cclL6jgc.s 			page 13


 685              	start_listening:
 686              	.LFB296:
 687              		.loc 1 149 0
 688              		.cfi_startproc
 689              		@ args = 0, pretend = 0, frame = 8
 690              		@ frame_needed = 0, uses_anonymous_args = 0
 691 0000 00B5     		push	{lr}
 692              		.cfi_def_cfa_offset 4
 693              		.cfi_offset 14, -4
 694 0002 084B     		ldr	r3, .L77
 695 0004 83B0     		sub	sp, sp, #12
 696              		.cfi_def_cfa_offset 16
 697              		.loc 1 149 0
 698 0006 1A68     		ldr	r2, [r3]
 699 0008 0192     		str	r2, [sp, #4]
 700              		.loc 1 150 0
 701 000a 019A     		ldr	r2, [sp, #4]
 702 000c 1B68     		ldr	r3, [r3]
 703 000e 9A42     		cmp	r2, r3
 704 0010 05D1     		bne	.L76
 705 0012 0548     		ldr	r0, .L77+4
 706              		.loc 1 151 0
 707 0014 03B0     		add	sp, sp, #12
 708              		.cfi_remember_state
 709              		.cfi_def_cfa_offset 4
 710              		@ sp needed
 711 0016 5DF804EB 		ldr	lr, [sp], #4
 712              		.cfi_restore 14
 713              		.cfi_def_cfa_offset 0
 714              		.loc 1 150 0
 715 001a FFF7FEBF 		b	mic_start
 716              	.LVL50:
 717              	.L76:
 718              		.cfi_restore_state
 719 001e FFF7FEFF 		bl	__stack_chk_fail
 720              	.LVL51:
 721              	.L78:
 722 0022 00BF     		.align	2
 723              	.L77:
 724 0024 00000000 		.word	__stack_chk_guard
 725 0028 00000000 		.word	processAudioData
 726              		.cfi_endproc
 727              	.LFE296:
 728              		.size	start_listening, .-start_listening
 729              		.global	mic_playing
 730              		.section	.bss.frequence,"aw",%nobits
 731              		.align	2
 732              		.set	.LANCHOR5,. + 0
 733              		.type	frequence, %object
 734              		.size	frequence, 4
 735              	frequence:
 736 0000 00000000 		.space	4
 737              		.section	.bss.micLeft_cmplx_input,"aw",%nobits
 738              		.align	2
 739              		.type	micLeft_cmplx_input, %object
 740              		.size	micLeft_cmplx_input, 8192
 741              	micLeft_cmplx_input:
ARM GAS  /var/folders/z4/49152xh17977x5plrghp70jc0000gn/T//cclL6jgc.s 			page 14


 742 0000 00000000 		.space	8192
 742      00000000 
 742      00000000 
 742      00000000 
 742      00000000 
 743              		.section	.bss.micLeft_output,"aw",%nobits
 744              		.align	2
 745              		.type	micLeft_output, %object
 746              		.size	micLeft_output, 4096
 747              	micLeft_output:
 748 0000 00000000 		.space	4096
 748      00000000 
 748      00000000 
 748      00000000 
 748      00000000 
 749              		.section	.bss.mic_playing,"aw",%nobits
 750              		.set	.LANCHOR0,. + 0
 751              		.type	mic_playing, %object
 752              		.size	mic_playing, 1
 753              	mic_playing:
 754 0000 00       		.space	1
 755              		.section	.bss.mustSend.14161,"aw",%nobits
 756              		.set	.LANCHOR4,. + 0
 757              		.type	mustSend.14161, %object
 758              		.size	mustSend.14161, 1
 759              	mustSend.14161:
 760 0000 00       		.space	1
 761              		.section	.bss.nb_samples.14160,"aw",%nobits
 762              		.align	1
 763              		.set	.LANCHOR1,. + 0
 764              		.type	nb_samples.14160, %object
 765              		.size	nb_samples.14160, 2
 766              	nb_samples.14160:
 767 0000 0000     		.space	2
 768              		.section	.data.sendToComputer_sem,"aw",%progbits
 769              		.align	2
 770              		.set	.LANCHOR2,. + 0
 771              		.type	sendToComputer_sem, %object
 772              		.size	sendToComputer_sem, 12
 773              	sendToComputer_sem:
 774 0000 00000000 		.word	sendToComputer_sem
 775 0004 00000000 		.word	sendToComputer_sem
 776 0008 00000000 		.word	0
 777              		.section	.rodata.__func__.7153,"a",%progbits
 778              		.align	2
 779              		.set	.LANCHOR3,. + 0
 780              		.type	__func__.7153, %object
 781              		.size	__func__.7153, 12
 782              	__func__.7153:
 783 0000 63685379 		.ascii	"chSysUnlock\000"
 783      73556E6C 
 783      6F636B00 
 784              		.text
 785              	.Letext0:
 786              		.file 5 "/Applications/Eclipse_e-puck2.app/Contents/Eclipse_e-puck2/Tools/gcc-arm-none-eabi-7-2017
 787              		.file 6 "/Applications/Eclipse_e-puck2.app/Contents/Eclipse_e-puck2/Tools/gcc-arm-none-eabi-7-2017
 788              		.file 7 "/Applications/Eclipse_e-puck2.app/Contents/Eclipse_e-puck2/Tools/gcc-arm-none-eabi-7-2017
ARM GAS  /var/folders/z4/49152xh17977x5plrghp70jc0000gn/T//cclL6jgc.s 			page 15


 789              		.file 8 "../lib/e-puck2_main-processor/ChibiOS//os/rt/ports/ARMCMx/compilers/GCC/chtypes.h"
 790              		.file 9 "../lib/e-puck2_main-processor/ChibiOS//os/rt/include/chsystypes.h"
 791              		.file 10 "../lib/e-puck2_main-processor/ChibiOS//os/rt/include/chschd.h"
 792              		.file 11 "../lib/e-puck2_main-processor/ChibiOS//os/ext/CMSIS/include/core_cm4.h"
 793              		.file 12 "../lib/e-puck2_main-processor/ChibiOS//os/ext/CMSIS/ST/system_stm32f4xx.h"
 794              		.file 13 "../lib/e-puck2_main-processor/ChibiOS//os/ext/CMSIS/ST/stm32f407xx.h"
 795              		.file 14 "../lib/e-puck2_main-processor/ChibiOS//os/rt/ports/ARMCMx/chcore.h"
 796              		.file 15 "../lib/e-puck2_main-processor/ChibiOS//os/rt/ports/ARMCMx/chcore_v7m.h"
 797              		.file 16 "../lib/e-puck2_main-processor/ChibiOS//os/rt/include/chdebug.h"
 798              		.file 17 "../lib/e-puck2_main-processor/ChibiOS//os/rt/include/chtm.h"
 799              		.file 18 "../lib/e-puck2_main-processor/ChibiOS//os/rt/include/chstats.h"
 800              		.file 19 "../lib/e-puck2_main-processor/ChibiOS//os/rt/include/chsem.h"
 801              		.file 20 "../lib/e-puck2_main-processor/ChibiOS//os/rt/include/chmtx.h"
 802              		.file 21 "../lib/e-puck2_main-processor/ChibiOS//os/rt/include/chregistry.h"
 803              		.file 22 "../lib/e-puck2_main-processor/ChibiOS//os/rt/include/chevents.h"
 804              		.file 23 "../lib/e-puck2_main-processor/ChibiOS//os/rt/include/chqueues.h"
 805              		.file 24 "../lib/e-puck2_main-processor/ChibiOS//os/hal/ports/STM32/STM32F4xx/stm32_dma.h"
 806              		.file 25 "../lib/e-puck2_main-processor/ChibiOS//os/hal/include/hal_ioblock.h"
 807              		.file 26 "../lib/e-puck2_main-processor/ChibiOS//os/hal/ports/STM32/LLD/GPIOv2/pal_lld.h"
 808              		.file 27 "../lib/e-puck2_main-processor/ChibiOS//os/hal/include/adc.h"
 809              		.file 28 "../lib/e-puck2_main-processor/ChibiOS//os/hal/ports/STM32/STM32F4xx/adc_lld.h"
 810              		.file 29 "../lib/e-puck2_main-processor/ChibiOS//os/hal/include/can.h"
 811              		.file 30 "../lib/e-puck2_main-processor/ChibiOS//os/hal/ports/STM32/LLD/can_lld.h"
 812              		.file 31 "../lib/e-puck2_main-processor/ChibiOS//os/hal/include/dac.h"
 813              		.file 32 "../lib/e-puck2_main-processor/ChibiOS//os/hal/ports/STM32/LLD/DACv1/dac_lld.h"
 814              		.file 33 "../lib/e-puck2_main-processor/ChibiOS//os/hal/include/ext.h"
 815              		.file 34 "../lib/e-puck2_main-processor/ChibiOS//os/hal/ports/STM32/LLD/ext_lld.h"
 816              		.file 35 "../lib/e-puck2_main-processor/ChibiOS//os/hal/include/gpt.h"
 817              		.file 36 "../lib/e-puck2_main-processor/ChibiOS//os/hal/ports/STM32/LLD/TIMv1/gpt_lld.h"
 818              		.file 37 "../lib/e-puck2_main-processor/ChibiOS//os/hal/ports/STM32/LLD/TIMv1/stm32_tim.h"
 819              		.file 38 "../lib/e-puck2_main-processor/ChibiOS//os/hal/include/i2c.h"
 820              		.file 39 "../lib/e-puck2_main-processor/ChibiOS//os/hal/ports/STM32/LLD/I2Cv1/i2c_lld.h"
 821              		.file 40 "../lib/e-puck2_main-processor/ChibiOS//os/hal/include/i2s.h"
 822              		.file 41 "../lib/e-puck2_main-processor/ChibiOS//os/hal/ports/STM32/LLD/SPIv1/i2s_lld.h"
 823              		.file 42 "../lib/e-puck2_main-processor/ChibiOS//os/hal/include/pwm.h"
 824              		.file 43 "../lib/e-puck2_main-processor/ChibiOS//os/hal/ports/STM32/LLD/TIMv1/pwm_lld.h"
 825              		.file 44 "../lib/e-puck2_main-processor/ChibiOS//os/hal/include/serial.h"
 826              		.file 45 "../lib/e-puck2_main-processor/ChibiOS//os/hal/ports/STM32/LLD/USARTv1/serial_lld.h"
 827              		.file 46 "../lib/e-puck2_main-processor/ChibiOS//os/hal/include/sdc.h"
 828              		.file 47 "../lib/e-puck2_main-processor/ChibiOS//os/hal/ports/STM32/LLD/sdc_lld.h"
 829              		.file 48 "../lib/e-puck2_main-processor/ChibiOS//os/hal/include/spi.h"
 830              		.file 49 "../lib/e-puck2_main-processor/ChibiOS//os/hal/ports/STM32/LLD/SPIv1/spi_lld.h"
 831              		.file 50 "../lib/e-puck2_main-processor/ChibiOS//os/hal/include/usb.h"
 832              		.file 51 "../lib/e-puck2_main-processor/ChibiOS//os/hal/ports/STM32/LLD/OTGv1/usb_lld.h"
 833              		.file 52 "../lib/e-puck2_main-processor/ChibiOS//os/hal/ports/STM32/LLD/OTGv1/stm32_otg.h"
 834              		.file 53 "../lib/e-puck2_main-processor/ChibiOS//os/hal/include/serial_usb.h"
 835              		.file 54 "../lib/e-puck2_main-processor/ChibiOS_ext/os/hal/include/../ports/STM32/STM32F4xx/dcmi_l
 836              		.file 55 "/Applications/Eclipse_e-puck2.app/Contents/Eclipse_e-puck2/Tools/gcc-arm-none-eabi-7-201
 837              		.file 56 "/Applications/Eclipse_e-puck2.app/Contents/Eclipse_e-puck2/Tools/gcc-arm-none-eabi-7-201
 838              		.file 57 "/Applications/Eclipse_e-puck2.app/Contents/Eclipse_e-puck2/Tools/gcc-arm-none-eabi-7-201
 839              		.file 58 "../lib/e-puck2_main-processor/src/msgbus/messagebus.h"
 840              		.file 59 "/Applications/Eclipse_e-puck2.app/Contents/Eclipse_e-puck2/Tools/gcc-arm-none-eabi-7-201
 841              		.file 60 "/Applications/Eclipse_e-puck2.app/Contents/Eclipse_e-puck2/Tools/gcc-arm-none-eabi-7-201
 842              		.file 61 "../lib/e-puck2_main-processor/src/parameter/parameter.h"
 843              		.file 62 "./main.h"
 844              		.file 63 "../lib/e-puck2_main-processor/src/usbcfg.h"
 845              		.file 64 "./audio_processing.h"
ARM GAS  /var/folders/z4/49152xh17977x5plrghp70jc0000gn/T//cclL6jgc.s 			page 16


 846              		.file 65 "/Applications/Eclipse_e-puck2.app/Contents/Eclipse_e-puck2/Tools/gcc-arm-none-eabi-7-201
 847              		.file 66 "../lib/e-puck2_main-processor/src/audio/microphone.h"
 848              		.file 67 "./fft.h"
 849              		.file 68 "../lib/e-puck2_main-processor/ChibiOS//os/ext/CMSIS/include/arm_math.h"