ARM GAS  /var/folders/z4/49152xh17977x5plrghp70jc0000gn/T//cc59guXT.s 			page 1


   1              		.cpu cortex-m4
   2              		.eabi_attribute 27, 1
   3              		.eabi_attribute 28, 1
   4              		.eabi_attribute 20, 1
   5              		.eabi_attribute 21, 1
   6              		.eabi_attribute 23, 3
   7              		.eabi_attribute 24, 1
   8              		.eabi_attribute 25, 1
   9              		.eabi_attribute 26, 1
  10              		.eabi_attribute 30, 2
  11              		.eabi_attribute 34, 1
  12              		.eabi_attribute 18, 4
  13              		.file	"main.c"
  14              		.text
  15              	.Ltext0:
  16              		.cfi_sections	.debug_frame
  17              		.section	.text.startup.main,"ax",%progbits
  18              		.align	1
  19              		.p2align 4,,15
  20              		.global	main
  21              		.syntax unified
  22              		.thumb
  23              		.thumb_func
  24              		.fpu fpv4-sp-d16
  25              		.type	main, %function
  26              	main:
  27              	.LFB293:
  28              		.file 1 "main.c"
  29              		.loc 1 25 0
  30              		.cfi_startproc
  31              		@ Volatile: function does not return.
  32              		@ args = 0, pretend = 0, frame = 8
  33              		@ frame_needed = 0, uses_anonymous_args = 0
  34 0000 00B5     		push	{lr}
  35              		.cfi_def_cfa_offset 4
  36              		.cfi_offset 14, -4
  37 0002 1A4B     		ldr	r3, .L6
  38 0004 83B0     		sub	sp, sp, #12
  39              		.cfi_def_cfa_offset 16
  40              		.loc 1 25 0
  41 0006 1B68     		ldr	r3, [r3]
  42 0008 0193     		str	r3, [sp, #4]
  43              		.loc 1 27 0
  44 000a FFF7FEFF 		bl	halInit
  45              	.LVL0:
  46              		.loc 1 28 0
  47 000e FFF7FEFF 		bl	chSysInit
  48              	.LVL1:
  49              		.loc 1 29 0
  50 0012 FFF7FEFF 		bl	mpu_init
  51              	.LVL2:
  52              		.loc 1 31 0
  53 0016 FFF7FEFF 		bl	usb_start
  54              	.LVL3:
  55              		.loc 1 32 0
  56 001a FFF7FEFF 		bl	spi_comm_start
  57              	.LVL4:
ARM GAS  /var/folders/z4/49152xh17977x5plrghp70jc0000gn/T//cc59guXT.s 			page 2


  58              		.loc 1 34 0
  59 001e FFF7FEFF 		bl	init_arena
  60              	.LVL5:
  61              		.loc 1 35 0
  62 0022 0020     		movs	r0, #0
  63 0024 FFF7FEFF 		bl	set_body_led
  64              	.LVL6:
  65              		.loc 1 36 0
  66 0028 0020     		movs	r0, #0
  67 002a FFF7FEFF 		bl	set_front_led
  68              	.LVL7:
  69              		.loc 1 37 0
  70 002e 104A     		ldr	r2, .L6+4
  71 0030 1049     		ldr	r1, .L6+8
  72 0032 1148     		ldr	r0, .L6+12
  73 0034 FFF7FEFF 		bl	messagebus_init
  74              	.LVL8:
  75              		.loc 1 38 0
  76 0038 40F6B830 		movw	r0, #3000
  77 003c FFF7FEFF 		bl	chThdSleep
  78              	.LVL9:
  79              		.loc 1 41 0
  80 0040 FFF7FEFF 		bl	gotoarenacenter
  81              	.LVL10:
  82              		.loc 1 42 0
  83 0044 0020     		movs	r0, #0
  84 0046 FFF7FEFF 		bl	set_body_led
  85              	.LVL11:
  86              		.loc 1 43 0
  87 004a 0120     		movs	r0, #1
  88 004c FFF7FEFF 		bl	set_front_led
  89              	.LVL12:
  90              		.loc 1 44 0
  91 0050 4FF47A70 		mov	r0, #1000
  92 0054 FFF7FEFF 		bl	chThdSleep
  93              	.LVL13:
  94              		.loc 1 45 0
  95 0058 0020     		movs	r0, #0
  96 005a FFF7FEFF 		bl	set_front_led
  97              	.LVL14:
  98              		.loc 1 48 0
  99 005e FFF7FEFF 		bl	search_waste
 100              	.LVL15:
 101              	.L2:
 102              		.loc 1 53 0 discriminator 1
 103 0062 4FF4FA60 		mov	r0, #2000
 104 0066 FFF7FEFF 		bl	chThdSleep
 105              	.LVL16:
 106 006a FAE7     		b	.L2
 107              	.L7:
 108              		.align	2
 109              	.L6:
 110 006c 00000000 		.word	__stack_chk_guard
 111 0070 00000000 		.word	.LANCHOR0
 112 0074 00000000 		.word	.LANCHOR1
 113 0078 00000000 		.word	.LANCHOR2
 114              		.cfi_endproc
ARM GAS  /var/folders/z4/49152xh17977x5plrghp70jc0000gn/T//cc59guXT.s 			page 3


 115              	.LFE293:
 116              		.size	main, .-main
 117              		.section	.text.__stack_chk_fail,"ax",%progbits
 118              		.align	1
 119              		.p2align 4,,15
 120              		.global	__stack_chk_fail
 121              		.syntax unified
 122              		.thumb
 123              		.thumb_func
 124              		.fpu fpv4-sp-d16
 125              		.type	__stack_chk_fail, %function
 126              	__stack_chk_fail:
 127              	.LFB294:
 128              		.loc 1 61 0
 129              		.cfi_startproc
 130              		@ args = 0, pretend = 0, frame = 8
 131              		@ frame_needed = 0, uses_anonymous_args = 0
 132 0000 00B5     		push	{lr}
 133              		.cfi_def_cfa_offset 4
 134              		.cfi_offset 14, -4
 135 0002 084B     		ldr	r3, .L13
 136 0004 83B0     		sub	sp, sp, #12
 137              		.cfi_def_cfa_offset 16
 138              		.loc 1 61 0
 139 0006 1A68     		ldr	r2, [r3]
 140 0008 0192     		str	r2, [sp, #4]
 141              		.loc 1 62 0
 142 000a 019A     		ldr	r2, [sp, #4]
 143 000c 1B68     		ldr	r3, [r3]
 144 000e 9A42     		cmp	r2, r3
 145 0010 05D1     		bne	.L12
 146 0012 0548     		ldr	r0, .L13+4
 147              		.loc 1 63 0
 148 0014 03B0     		add	sp, sp, #12
 149              		.cfi_remember_state
 150              		.cfi_def_cfa_offset 4
 151              		@ sp needed
 152 0016 5DF804EB 		ldr	lr, [sp], #4
 153              		.cfi_restore 14
 154              		.cfi_def_cfa_offset 0
 155              		.loc 1 62 0
 156 001a FFF7FEBF 		b	chSysHalt
 157              	.LVL17:
 158              	.L12:
 159              		.cfi_restore_state
 160 001e FFF7FEFF 		bl	__stack_chk_fail
 161              	.LVL18:
 162              	.L14:
 163 0022 00BF     		.align	2
 164              	.L13:
 165 0024 00000000 		.word	__stack_chk_guard
 166 0028 00000000 		.word	.LC0
 167              		.cfi_endproc
 168              	.LFE294:
 169              		.size	__stack_chk_fail, .-__stack_chk_fail
 170              		.global	__stack_chk_guard
 171              		.global	bus_condvar
ARM GAS  /var/folders/z4/49152xh17977x5plrghp70jc0000gn/T//cc59guXT.s 			page 4


 172              		.global	bus_lock
 173              		.global	bus
 174              		.section	.bss.bus,"aw",%nobits
 175              		.align	2
 176              		.set	.LANCHOR2,. + 0
 177              		.type	bus, %object
 178              		.size	bus, 12
 179              	bus:
 180 0000 00000000 		.space	12
 180      00000000 
 180      00000000 
 181              		.section	.data.__stack_chk_guard,"aw",%progbits
 182              		.align	2
 183              		.type	__stack_chk_guard, %object
 184              		.size	__stack_chk_guard, 4
 185              	__stack_chk_guard:
 186 0000 96E3DEE2 		.word	-488709226
 187              		.section	.data.bus_condvar,"aw",%progbits
 188              		.align	2
 189              		.set	.LANCHOR0,. + 0
 190              		.type	bus_condvar, %object
 191              		.size	bus_condvar, 8
 192              	bus_condvar:
 193 0000 00000000 		.word	bus_condvar
 194 0004 00000000 		.word	bus_condvar
 195              		.section	.data.bus_lock,"aw",%progbits
 196              		.align	2
 197              		.set	.LANCHOR1,. + 0
 198              		.type	bus_lock, %object
 199              		.size	bus_lock, 20
 200              	bus_lock:
 201 0000 00000000 		.word	bus_lock
 202 0004 00000000 		.word	bus_lock
 203 0008 00000000 		.word	0
 204 000c 00000000 		.word	0
 205 0010 00000000 		.word	0
 206              		.section	.rodata.__stack_chk_fail.str1.4,"aMS",%progbits,1
 207              		.align	2
 208              	.LC0:
 209 0000 53746163 		.ascii	"Stack smashing detected\000"
 209      6B20736D 
 209      61736869 
 209      6E672064 
 209      65746563 
 210              		.text
 211              	.Letext0:
 212              		.file 2 "/Applications/Eclipse_e-puck2.app/Contents/Eclipse_e-puck2/Tools/gcc-arm-none-eabi-7-2017
 213              		.file 3 "/Applications/Eclipse_e-puck2.app/Contents/Eclipse_e-puck2/Tools/gcc-arm-none-eabi-7-2017
 214              		.file 4 "/Applications/Eclipse_e-puck2.app/Contents/Eclipse_e-puck2/Tools/gcc-arm-none-eabi-7-2017
 215              		.file 5 "/Applications/Eclipse_e-puck2.app/Contents/Eclipse_e-puck2/Tools/gcc-arm-none-eabi-7-2017
 216              		.file 6 "/Applications/Eclipse_e-puck2.app/Contents/Eclipse_e-puck2/Tools/gcc-arm-none-eabi-7-2017
 217              		.file 7 "/Applications/Eclipse_e-puck2.app/Contents/Eclipse_e-puck2/Tools/gcc-arm-none-eabi-7-2017
 218              		.file 8 "/Applications/Eclipse_e-puck2.app/Contents/Eclipse_e-puck2/Tools/gcc-arm-none-eabi-7-2017
 219              		.file 9 "/Applications/Eclipse_e-puck2.app/Contents/Eclipse_e-puck2/Tools/gcc-arm-none-eabi-7-2017
 220              		.file 10 "../lib/e-puck2_main-processor/ChibiOS//os/rt/ports/ARMCMx/compilers/GCC/chtypes.h"
 221              		.file 11 "../lib/e-puck2_main-processor/ChibiOS//os/rt/include/chsystypes.h"
 222              		.file 12 "../lib/e-puck2_main-processor/ChibiOS//os/rt/include/chschd.h"
ARM GAS  /var/folders/z4/49152xh17977x5plrghp70jc0000gn/T//cc59guXT.s 			page 5


 223              		.file 13 "../lib/e-puck2_main-processor/ChibiOS//os/ext/CMSIS/include/core_cm4.h"
 224              		.file 14 "../lib/e-puck2_main-processor/ChibiOS//os/ext/CMSIS/ST/system_stm32f4xx.h"
 225              		.file 15 "../lib/e-puck2_main-processor/ChibiOS//os/ext/CMSIS/ST/stm32f407xx.h"
 226              		.file 16 "../lib/e-puck2_main-processor/ChibiOS//os/rt/ports/ARMCMx/chcore.h"
 227              		.file 17 "../lib/e-puck2_main-processor/ChibiOS//os/rt/ports/ARMCMx/chcore_v7m.h"
 228              		.file 18 "../lib/e-puck2_main-processor/ChibiOS//os/rt/include/chdebug.h"
 229              		.file 19 "../lib/e-puck2_main-processor/ChibiOS//os/rt/include/chtm.h"
 230              		.file 20 "../lib/e-puck2_main-processor/ChibiOS//os/rt/include/chstats.h"
 231              		.file 21 "../lib/e-puck2_main-processor/ChibiOS//os/rt/include/chsem.h"
 232              		.file 22 "../lib/e-puck2_main-processor/ChibiOS//os/rt/include/chmtx.h"
 233              		.file 23 "../lib/e-puck2_main-processor/ChibiOS//os/rt/include/chregistry.h"
 234              		.file 24 "../lib/e-puck2_main-processor/ChibiOS//os/rt/include/chcond.h"
 235              		.file 25 "../lib/e-puck2_main-processor/ChibiOS//os/rt/include/chevents.h"
 236              		.file 26 "../lib/e-puck2_main-processor/ChibiOS//os/rt/include/chqueues.h"
 237              		.file 27 "../lib/e-puck2_main-processor/ChibiOS//os/hal/ports/STM32/STM32F4xx/stm32_dma.h"
 238              		.file 28 "../lib/e-puck2_main-processor/ChibiOS//os/hal/include/hal_ioblock.h"
 239              		.file 29 "../lib/e-puck2_main-processor/ChibiOS//os/hal/ports/STM32/LLD/GPIOv2/pal_lld.h"
 240              		.file 30 "../lib/e-puck2_main-processor/ChibiOS//os/hal/include/adc.h"
 241              		.file 31 "../lib/e-puck2_main-processor/ChibiOS//os/hal/ports/STM32/STM32F4xx/adc_lld.h"
 242              		.file 32 "../lib/e-puck2_main-processor/ChibiOS//os/hal/include/can.h"
 243              		.file 33 "../lib/e-puck2_main-processor/ChibiOS//os/hal/ports/STM32/LLD/can_lld.h"
 244              		.file 34 "../lib/e-puck2_main-processor/ChibiOS//os/hal/include/dac.h"
 245              		.file 35 "../lib/e-puck2_main-processor/ChibiOS//os/hal/ports/STM32/LLD/DACv1/dac_lld.h"
 246              		.file 36 "../lib/e-puck2_main-processor/ChibiOS//os/hal/include/ext.h"
 247              		.file 37 "../lib/e-puck2_main-processor/ChibiOS//os/hal/ports/STM32/LLD/ext_lld.h"
 248              		.file 38 "../lib/e-puck2_main-processor/ChibiOS//os/hal/include/gpt.h"
 249              		.file 39 "../lib/e-puck2_main-processor/ChibiOS//os/hal/ports/STM32/LLD/TIMv1/gpt_lld.h"
 250              		.file 40 "../lib/e-puck2_main-processor/ChibiOS//os/hal/ports/STM32/LLD/TIMv1/stm32_tim.h"
 251              		.file 41 "../lib/e-puck2_main-processor/ChibiOS//os/hal/include/i2c.h"
 252              		.file 42 "../lib/e-puck2_main-processor/ChibiOS//os/hal/ports/STM32/LLD/I2Cv1/i2c_lld.h"
 253              		.file 43 "../lib/e-puck2_main-processor/ChibiOS//os/hal/include/i2s.h"
 254              		.file 44 "../lib/e-puck2_main-processor/ChibiOS//os/hal/ports/STM32/LLD/SPIv1/i2s_lld.h"
 255              		.file 45 "../lib/e-puck2_main-processor/ChibiOS//os/hal/include/pwm.h"
 256              		.file 46 "../lib/e-puck2_main-processor/ChibiOS//os/hal/ports/STM32/LLD/TIMv1/pwm_lld.h"
 257              		.file 47 "../lib/e-puck2_main-processor/ChibiOS//os/hal/include/serial.h"
 258              		.file 48 "../lib/e-puck2_main-processor/ChibiOS//os/hal/ports/STM32/LLD/USARTv1/serial_lld.h"
 259              		.file 49 "../lib/e-puck2_main-processor/ChibiOS//os/hal/include/sdc.h"
 260              		.file 50 "../lib/e-puck2_main-processor/ChibiOS//os/hal/ports/STM32/LLD/sdc_lld.h"
 261              		.file 51 "../lib/e-puck2_main-processor/ChibiOS//os/hal/include/spi.h"
 262              		.file 52 "../lib/e-puck2_main-processor/ChibiOS//os/hal/ports/STM32/LLD/SPIv1/spi_lld.h"
 263              		.file 53 "../lib/e-puck2_main-processor/ChibiOS//os/hal/include/usb.h"
 264              		.file 54 "../lib/e-puck2_main-processor/ChibiOS//os/hal/ports/STM32/LLD/OTGv1/usb_lld.h"
 265              		.file 55 "../lib/e-puck2_main-processor/ChibiOS//os/hal/ports/STM32/LLD/OTGv1/stm32_otg.h"
 266              		.file 56 "../lib/e-puck2_main-processor/ChibiOS//os/hal/include/serial_usb.h"
 267              		.file 57 "../lib/e-puck2_main-processor/ChibiOS_ext/os/hal/include/../ports/STM32/STM32F4xx/dcmi_l
 268              		.file 58 "/Applications/Eclipse_e-puck2.app/Contents/Eclipse_e-puck2/Tools/gcc-arm-none-eabi-7-201
 269              		.file 59 "../lib/e-puck2_main-processor/src/msgbus/messagebus.h"
 270              		.file 60 "../lib/e-puck2_main-processor/src/parameter/parameter.h"
 271              		.file 61 "./main.h"
 272              		.file 62 "../lib/e-puck2_main-processor/src/usbcfg.h"
 273              		.file 63 "../lib/e-puck2_main-processor/ChibiOS//os/rt/include/chsys.h"
 274              		.file 64 "../lib/e-puck2_main-processor/ChibiOS//os/hal/include/hal.h"
 275              		.file 65 "../lib/e-puck2_main-processor/src/memory_protection.h"
 276              		.file 66 "../lib/e-puck2_main-processor/src/spi_comm.h"
 277              		.file 67 "../lib/e-puck2_main-processor/src/leds.h"
 278              		.file 68 "../lib/e-puck2_main-processor/ChibiOS//os/rt/include/chthreads.h"
 279              		.file 69 "arena.h"
ARM GAS  /var/folders/z4/49152xh17977x5plrghp70jc0000gn/T//cc59guXT.s 			page 6

