ARM GAS  /var/folders/z4/49152xh17977x5plrghp70jc0000gn/T//ccJ4nqnI.s 			page 1


   1              		.cpu cortex-m4
   2              		.eabi_attribute 27, 1
   3              		.eabi_attribute 28, 1
   4              		.eabi_attribute 20, 1
   5              		.eabi_attribute 21, 1
   6              		.eabi_attribute 23, 3
   7              		.eabi_attribute 24, 1
   8              		.eabi_attribute 25, 1
   9              		.eabi_attribute 26, 1
  10              		.eabi_attribute 30, 2
  11              		.eabi_attribute 34, 1
  12              		.eabi_attribute 18, 4
  13              		.file	"motors_advanced.c"
  14              		.text
  15              	.Ltext0:
  16              		.cfi_sections	.debug_frame
  17              		.section	.text.motors_advanced_reset_position,"ax",%progbits
  18              		.align	1
  19              		.p2align 4,,15
  20              		.global	motors_advanced_reset_position
  21              		.syntax unified
  22              		.thumb
  23              		.thumb_func
  24              		.fpu fpv4-sp-d16
  25              		.type	motors_advanced_reset_position, %function
  26              	motors_advanced_reset_position:
  27              	.LFB257:
  28              		.file 1 "motors_advanced.c"
  29              		.loc 1 17 0
  30              		.cfi_startproc
  31              		@ args = 0, pretend = 0, frame = 8
  32              		@ frame_needed = 0, uses_anonymous_args = 0
  33 0000 10B5     		push	{r4, lr}
  34              		.cfi_def_cfa_offset 8
  35              		.cfi_offset 4, -8
  36              		.cfi_offset 14, -4
  37 0002 094C     		ldr	r4, .L7
  38 0004 82B0     		sub	sp, sp, #8
  39              		.cfi_def_cfa_offset 16
  40              		.loc 1 17 0
  41 0006 2368     		ldr	r3, [r4]
  42 0008 0193     		str	r3, [sp, #4]
  43              		.loc 1 18 0
  44 000a 0020     		movs	r0, #0
  45 000c FFF7FEFF 		bl	left_motor_set_pos
  46              	.LVL0:
  47              		.loc 1 19 0
  48 0010 019A     		ldr	r2, [sp, #4]
  49 0012 2368     		ldr	r3, [r4]
  50 0014 9A42     		cmp	r2, r3
  51 0016 05D1     		bne	.L6
  52 0018 0020     		movs	r0, #0
  53              		.loc 1 20 0
  54 001a 02B0     		add	sp, sp, #8
  55              		.cfi_remember_state
  56              		.cfi_def_cfa_offset 8
  57              		@ sp needed
ARM GAS  /var/folders/z4/49152xh17977x5plrghp70jc0000gn/T//ccJ4nqnI.s 			page 2


  58 001c BDE81040 		pop	{r4, lr}
  59              		.cfi_restore 14
  60              		.cfi_restore 4
  61              		.cfi_def_cfa_offset 0
  62              		.loc 1 19 0
  63 0020 FFF7FEBF 		b	right_motor_set_pos
  64              	.LVL1:
  65              	.L6:
  66              		.cfi_restore_state
  67 0024 FFF7FEFF 		bl	__stack_chk_fail
  68              	.LVL2:
  69              	.L8:
  70              		.align	2
  71              	.L7:
  72 0028 00000000 		.word	__stack_chk_guard
  73              		.cfi_endproc
  74              	.LFE257:
  75              		.size	motors_advanced_reset_position, .-motors_advanced_reset_position
  76              		.section	.text.motors_advanced_set_speed,"ax",%progbits
  77              		.align	1
  78              		.p2align 4,,15
  79              		.global	motors_advanced_set_speed
  80              		.syntax unified
  81              		.thumb
  82              		.thumb_func
  83              		.fpu fpv4-sp-d16
  84              		.type	motors_advanced_set_speed, %function
  85              	motors_advanced_set_speed:
  86              	.LFB258:
  87              		.loc 1 23 0
  88              		.cfi_startproc
  89              		@ args = 0, pretend = 0, frame = 8
  90              		@ frame_needed = 0, uses_anonymous_args = 0
  91              	.LVL3:
  92 0000 10B5     		push	{r4, lr}
  93              		.cfi_def_cfa_offset 8
  94              		.cfi_offset 4, -8
  95              		.cfi_offset 14, -4
  96 0002 2DED028B 		vpush.64	{d8}
  97              		.cfi_def_cfa_offset 16
  98              		.cfi_offset 80, -16
  99              		.cfi_offset 81, -12
 100              		.loc 1 24 0
 101 0006 F2EE0A7A 		vmov.f32	s15, #1.3e+1
 102              		.loc 1 25 0
 103 000a B4EE670A 		vcmp.f32	s0, s15
 104              		.loc 1 23 0
 105 000e 1C4C     		ldr	r4, .L19
 106              		.loc 1 25 0
 107 0010 F1EE10FA 		vmrs	APSR_nzcv, FPSCR
 108              		.loc 1 23 0
 109 0014 82B0     		sub	sp, sp, #8
 110              		.cfi_def_cfa_offset 24
 111              		.loc 1 23 0
 112 0016 B0EE408A 		vmov.f32	s16, s0
 113              		.loc 1 26 0
 114 001a F4EEE70A 		vcmpe.f32	s1, s15
ARM GAS  /var/folders/z4/49152xh17977x5plrghp70jc0000gn/T//ccJ4nqnI.s 			page 3


 115              		.loc 1 23 0
 116 001e 2368     		ldr	r3, [r4]
 117 0020 0193     		str	r3, [sp, #4]
 118              		.loc 1 25 0
 119 0022 C8BF     		it	gt
 120 0024 B0EE678A 		vmovgt.f32	s16, s15
 121              	.LVL4:
 122              		.loc 1 26 0
 123 0028 F1EE10FA 		vmrs	APSR_nzcv, FPSCR
 124 002c 1ADD     		ble	.L17
 125 002e 4FF47A70 		mov	r0, #1000
 126              	.L11:
 127              	.LVL5:
 128              		.loc 1 28 0
 129 0032 FFF7FEFF 		bl	left_motor_set_speed
 130              	.LVL6:
 131              		.loc 1 29 0
 132 0036 019A     		ldr	r2, [sp, #4]
 133 0038 2368     		ldr	r3, [r4]
 134 003a 9A42     		cmp	r2, r3
 135 003c 1DD1     		bne	.L18
 136 003e B2EE0A7A 		vmov.f32	s14, #1.3e+1
 137 0042 C8EE077A 		vdiv.f32	s15, s16, s14
 138 0046 9FED0F7A 		vldr.32	s14, .L19+4
 139 004a 67EE877A 		vmul.f32	s15, s15, s14
 140 004e FDEEE77A 		vcvt.s32.f32	s15, s15
 141 0052 17EE900A 		vmov	r0, s15	@ int
 142              		.loc 1 30 0
 143 0056 02B0     		add	sp, sp, #8
 144              		.cfi_remember_state
 145              		.cfi_def_cfa_offset 16
 146              		@ sp needed
 147 0058 BDEC028B 		vldm	sp!, {d8}
 148              		.cfi_restore 80
 149              		.cfi_restore 81
 150              		.cfi_def_cfa_offset 8
 151              	.LVL7:
 152 005c BDE81040 		pop	{r4, lr}
 153              		.cfi_restore 14
 154              		.cfi_restore 4
 155              		.cfi_def_cfa_offset 0
 156              		.loc 1 29 0
 157 0060 FFF7FEBF 		b	right_motor_set_speed
 158              	.LVL8:
 159              	.L17:
 160              		.cfi_restore_state
 161 0064 80EEA77A 		vdiv.f32	s14, s1, s15
 162 0068 DFED067A 		vldr.32	s15, .L19+4
 163 006c 67EE277A 		vmul.f32	s15, s14, s15
 164 0070 FDEEE77A 		vcvt.s32.f32	s15, s15
 165 0074 17EE900A 		vmov	r0, s15	@ int
 166 0078 DBE7     		b	.L11
 167              	.LVL9:
 168              	.L18:
 169 007a FFF7FEFF 		bl	__stack_chk_fail
 170              	.LVL10:
 171              	.L20:
ARM GAS  /var/folders/z4/49152xh17977x5plrghp70jc0000gn/T//ccJ4nqnI.s 			page 4


 172 007e 00BF     		.align	2
 173              	.L19:
 174 0080 00000000 		.word	__stack_chk_guard
 175 0084 00007A44 		.word	1148846080
 176              		.cfi_endproc
 177              	.LFE258:
 178              		.size	motors_advanced_set_speed, .-motors_advanced_set_speed
 179              		.section	.text.motors_advanced_init,"ax",%progbits
 180              		.align	1
 181              		.p2align 4,,15
 182              		.global	motors_advanced_init
 183              		.syntax unified
 184              		.thumb
 185              		.thumb_func
 186              		.fpu fpv4-sp-d16
 187              		.type	motors_advanced_init, %function
 188              	motors_advanced_init:
 189              	.LFB256:
 190              		.loc 1 11 0
 191              		.cfi_startproc
 192              		@ args = 0, pretend = 0, frame = 8
 193              		@ frame_needed = 0, uses_anonymous_args = 0
 194 0000 10B5     		push	{r4, lr}
 195              		.cfi_def_cfa_offset 8
 196              		.cfi_offset 4, -8
 197              		.cfi_offset 14, -4
 198 0002 0D4C     		ldr	r4, .L26
 199 0004 82B0     		sub	sp, sp, #8
 200              		.cfi_def_cfa_offset 16
 201              		.loc 1 11 0
 202 0006 2368     		ldr	r3, [r4]
 203 0008 0193     		str	r3, [sp, #4]
 204              		.loc 1 12 0
 205 000a FFF7FEFF 		bl	motors_init
 206              	.LVL11:
 207              		.loc 1 13 0
 208 000e DFED0B0A 		vldr.32	s1, .L26+4
 209 0012 B0EE600A 		vmov.f32	s0, s1
 210 0016 FFF7FEFF 		bl	motors_advanced_set_speed
 211              	.LVL12:
 212              	.LBB9:
 213              	.LBB10:
 214              		.loc 1 18 0
 215 001a 0020     		movs	r0, #0
 216 001c FFF7FEFF 		bl	left_motor_set_pos
 217              	.LVL13:
 218              		.loc 1 19 0
 219 0020 019A     		ldr	r2, [sp, #4]
 220 0022 2368     		ldr	r3, [r4]
 221 0024 9A42     		cmp	r2, r3
 222 0026 05D1     		bne	.L25
 223 0028 0020     		movs	r0, #0
 224              	.LBE10:
 225              	.LBE9:
 226              		.loc 1 15 0
 227 002a 02B0     		add	sp, sp, #8
 228              		.cfi_remember_state
ARM GAS  /var/folders/z4/49152xh17977x5plrghp70jc0000gn/T//ccJ4nqnI.s 			page 5


 229              		.cfi_def_cfa_offset 8
 230              		@ sp needed
 231 002c BDE81040 		pop	{r4, lr}
 232              		.cfi_restore 14
 233              		.cfi_restore 4
 234              		.cfi_def_cfa_offset 0
 235              	.LBB12:
 236              	.LBB11:
 237              		.loc 1 19 0
 238 0030 FFF7FEBF 		b	right_motor_set_pos
 239              	.LVL14:
 240              	.L25:
 241              		.cfi_restore_state
 242 0034 FFF7FEFF 		bl	__stack_chk_fail
 243              	.LVL15:
 244              	.L27:
 245              		.align	2
 246              	.L26:
 247 0038 00000000 		.word	__stack_chk_guard
 248 003c 00000000 		.word	0
 249              	.LBE11:
 250              	.LBE12:
 251              		.cfi_endproc
 252              	.LFE256:
 253              		.size	motors_advanced_init, .-motors_advanced_init
 254              		.section	.text.motors_advanced_stop,"ax",%progbits
 255              		.align	1
 256              		.p2align 4,,15
 257              		.global	motors_advanced_stop
 258              		.syntax unified
 259              		.thumb
 260              		.thumb_func
 261              		.fpu fpv4-sp-d16
 262              		.type	motors_advanced_stop, %function
 263              	motors_advanced_stop:
 264              	.LFB260:
 265              		.loc 1 42 0
 266              		.cfi_startproc
 267              		@ args = 0, pretend = 0, frame = 8
 268              		@ frame_needed = 0, uses_anonymous_args = 0
 269 0000 10B5     		push	{r4, lr}
 270              		.cfi_def_cfa_offset 8
 271              		.cfi_offset 4, -8
 272              		.cfi_offset 14, -4
 273 0002 094C     		ldr	r4, .L33
 274 0004 82B0     		sub	sp, sp, #8
 275              		.cfi_def_cfa_offset 16
 276              		.loc 1 42 0
 277 0006 2368     		ldr	r3, [r4]
 278 0008 0193     		str	r3, [sp, #4]
 279              		.loc 1 43 0
 280 000a 0020     		movs	r0, #0
 281 000c FFF7FEFF 		bl	left_motor_set_speed
 282              	.LVL16:
 283              		.loc 1 44 0
 284 0010 019A     		ldr	r2, [sp, #4]
 285 0012 2368     		ldr	r3, [r4]
ARM GAS  /var/folders/z4/49152xh17977x5plrghp70jc0000gn/T//ccJ4nqnI.s 			page 6


 286 0014 9A42     		cmp	r2, r3
 287 0016 05D1     		bne	.L32
 288 0018 0020     		movs	r0, #0
 289              		.loc 1 45 0
 290 001a 02B0     		add	sp, sp, #8
 291              		.cfi_remember_state
 292              		.cfi_def_cfa_offset 8
 293              		@ sp needed
 294 001c BDE81040 		pop	{r4, lr}
 295              		.cfi_restore 14
 296              		.cfi_restore 4
 297              		.cfi_def_cfa_offset 0
 298              		.loc 1 44 0
 299 0020 FFF7FEBF 		b	right_motor_set_speed
 300              	.LVL17:
 301              	.L32:
 302              		.cfi_restore_state
 303 0024 FFF7FEFF 		bl	__stack_chk_fail
 304              	.LVL18:
 305              	.L34:
 306              		.align	2
 307              	.L33:
 308 0028 00000000 		.word	__stack_chk_guard
 309              		.cfi_endproc
 310              	.LFE260:
 311              		.size	motors_advanced_stop, .-motors_advanced_stop
 312              		.section	.text.motors_advanced_position_reached,"ax",%progbits
 313              		.align	1
 314              		.p2align 4,,15
 315              		.global	motors_advanced_position_reached
 316              		.syntax unified
 317              		.thumb
 318              		.thumb_func
 319              		.fpu fpv4-sp-d16
 320              		.type	motors_advanced_position_reached, %function
 321              	motors_advanced_position_reached:
 322              	.LFB261:
 323              		.loc 1 46 0
 324              		.cfi_startproc
 325              		@ args = 0, pretend = 0, frame = 8
 326              		@ frame_needed = 0, uses_anonymous_args = 0
 327 0000 10B5     		push	{r4, lr}
 328              		.cfi_def_cfa_offset 8
 329              		.cfi_offset 4, -8
 330              		.cfi_offset 14, -4
 331 0002 144C     		ldr	r4, .L42
 332 0004 82B0     		sub	sp, sp, #8
 333              		.cfi_def_cfa_offset 16
 334              		.loc 1 46 0
 335 0006 2368     		ldr	r3, [r4]
 336 0008 0193     		str	r3, [sp, #4]
 337              	.LBB17:
 338              		.loc 1 47 0
 339 000a FFF7FEFF 		bl	left_motor_get_pos
 340              	.LVL19:
 341 000e 124B     		ldr	r3, .L42+4
 342 0010 1B68     		ldr	r3, [r3]
ARM GAS  /var/folders/z4/49152xh17977x5plrghp70jc0000gn/T//ccJ4nqnI.s 			page 7


 343 0012 0028     		cmp	r0, #0
 344 0014 B8BF     		it	lt
 345 0016 4042     		rsblt	r0, r0, #0
 346 0018 002B     		cmp	r3, #0
 347 001a B8BF     		it	lt
 348 001c 5B42     		rsblt	r3, r3, #0
 349 001e 9842     		cmp	r0, r3
 350 0020 06DA     		bge	.L40
 351              		.loc 1 50 0
 352 0022 0020     		movs	r0, #0
 353              	.L36:
 354              	.LBE17:
 355              		.loc 1 51 0
 356 0024 019A     		ldr	r2, [sp, #4]
 357 0026 2368     		ldr	r3, [r4]
 358 0028 9A42     		cmp	r2, r3
 359 002a 10D1     		bne	.L41
 360 002c 02B0     		add	sp, sp, #8
 361              		.cfi_remember_state
 362              		.cfi_def_cfa_offset 8
 363              		@ sp needed
 364 002e 10BD     		pop	{r4, pc}
 365              	.L40:
 366              		.cfi_restore_state
 367              	.LBB18:
 368              	.LBB19:
 369              		.loc 1 47 0
 370 0030 FFF7FEFF 		bl	right_motor_get_pos
 371              	.LVL20:
 372 0034 094B     		ldr	r3, .L42+8
 373 0036 1B68     		ldr	r3, [r3]
 374 0038 0028     		cmp	r0, #0
 375 003a B8BF     		it	lt
 376 003c 4042     		rsblt	r0, r0, #0
 377 003e 002B     		cmp	r3, #0
 378 0040 B8BF     		it	lt
 379 0042 5B42     		rsblt	r3, r3, #0
 380              	.LBE19:
 381              	.LBE18:
 382              	.LBB20:
 383              		.loc 1 50 0
 384 0044 9842     		cmp	r0, r3
 385 0046 B4BF     		ite	lt
 386 0048 0020     		movlt	r0, #0
 387 004a 0120     		movge	r0, #1
 388 004c EAE7     		b	.L36
 389              	.L41:
 390              	.LBE20:
 391              		.loc 1 51 0
 392 004e FFF7FEFF 		bl	__stack_chk_fail
 393              	.LVL21:
 394              	.L43:
 395 0052 00BF     		.align	2
 396              	.L42:
 397 0054 00000000 		.word	__stack_chk_guard
 398 0058 00000000 		.word	.LANCHOR0
 399 005c 00000000 		.word	.LANCHOR1
ARM GAS  /var/folders/z4/49152xh17977x5plrghp70jc0000gn/T//ccJ4nqnI.s 			page 8


 400              		.cfi_endproc
 401              	.LFE261:
 402              		.size	motors_advanced_position_reached, .-motors_advanced_position_reached
 403              		.section	.text.motors_advanced_set_position,"ax",%progbits
 404              		.align	1
 405              		.p2align 4,,15
 406              		.global	motors_advanced_set_position
 407              		.syntax unified
 408              		.thumb
 409              		.thumb_func
 410              		.fpu fpv4-sp-d16
 411              		.type	motors_advanced_set_position, %function
 412              	motors_advanced_set_position:
 413              	.LFB259:
 414              		.loc 1 31 0
 415              		.cfi_startproc
 416              		@ args = 0, pretend = 0, frame = 8
 417              		@ frame_needed = 0, uses_anonymous_args = 0
 418              	.LVL22:
 419 0000 10B5     		push	{r4, lr}
 420              		.cfi_def_cfa_offset 8
 421              		.cfi_offset 4, -8
 422              		.cfi_offset 14, -4
 423 0002 2DED048B 		vpush.64	{d8, d9}
 424              		.cfi_def_cfa_offset 24
 425              		.cfi_offset 80, -24
 426              		.cfi_offset 81, -20
 427              		.cfi_offset 82, -16
 428              		.cfi_offset 83, -12
 429 0006 214C     		ldr	r4, .L52
 430 0008 82B0     		sub	sp, sp, #8
 431              		.cfi_def_cfa_offset 32
 432              		.loc 1 31 0
 433 000a 2368     		ldr	r3, [r4]
 434 000c 0193     		str	r3, [sp, #4]
 435              	.LBB21:
 436              	.LBB22:
 437              		.loc 1 18 0
 438 000e 0020     		movs	r0, #0
 439              	.LBE22:
 440              	.LBE21:
 441              		.loc 1 31 0
 442 0010 F0EE408A 		vmov.f32	s17, s0
 443 0014 B0EE608A 		vmov.f32	s16, s1
 444 0018 B0EE419A 		vmov.f32	s18, s2
 445 001c F0EE619A 		vmov.f32	s19, s3
 446              	.LBB24:
 447              	.LBB23:
 448              		.loc 1 18 0
 449 0020 FFF7FEFF 		bl	left_motor_set_pos
 450              	.LVL23:
 451              		.loc 1 19 0
 452 0024 0020     		movs	r0, #0
 453 0026 FFF7FEFF 		bl	right_motor_set_pos
 454              	.LVL24:
 455              	.LBE23:
 456              	.LBE24:
ARM GAS  /var/folders/z4/49152xh17977x5plrghp70jc0000gn/T//ccJ4nqnI.s 			page 9


 457              		.loc 1 33 0
 458 002a DFED197A 		vldr.32	s15, .L52+4
 459 002e 194A     		ldr	r2, .L52+8
 460              		.loc 1 34 0
 461 0030 194B     		ldr	r3, .L52+12
 462              		.loc 1 33 0
 463 0032 68EEA78A 		vmul.f32	s17, s17, s15
 464              	.LVL25:
 465              		.loc 1 34 0
 466 0036 28EE278A 		vmul.f32	s16, s16, s15
 467              	.LVL26:
 468              		.loc 1 33 0
 469 003a F2EE0A6A 		vmov.f32	s13, #1.3e+1
 470 003e 88EEA67A 		vdiv.f32	s14, s17, s13
 471              		.loc 1 34 0
 472 0042 C8EE267A 		vdiv.f32	s15, s16, s13
 473              		.loc 1 33 0
 474 0046 BDEEC77A 		vcvt.s32.f32	s14, s14
 475              		.loc 1 34 0
 476 004a FDEEE77A 		vcvt.s32.f32	s15, s15
 477              		.loc 1 35 0
 478 004e F0EE690A 		vmov.f32	s1, s19
 479 0052 B0EE490A 		vmov.f32	s0, s18
 480              		.loc 1 33 0
 481 0056 82ED007A 		vstr.32	s14, [r2]	@ int
 482              		.loc 1 34 0
 483 005a C3ED007A 		vstr.32	s15, [r3]	@ int
 484              		.loc 1 35 0
 485 005e FFF7FEFF 		bl	motors_advanced_set_speed
 486              	.LVL27:
 487              	.L45:
 488              		.loc 1 36 0
 489 0062 FFF7FEFF 		bl	motors_advanced_position_reached
 490              	.LVL28:
 491 0066 0028     		cmp	r0, #0
 492 0068 FBD0     		beq	.L45
 493              	.LBB25:
 494              	.LBB26:
 495              		.loc 1 43 0
 496 006a 0020     		movs	r0, #0
 497 006c FFF7FEFF 		bl	left_motor_set_speed
 498              	.LVL29:
 499              		.loc 1 44 0
 500 0070 019A     		ldr	r2, [sp, #4]
 501 0072 2368     		ldr	r3, [r4]
 502 0074 9A42     		cmp	r2, r3
 503 0076 07D1     		bne	.L51
 504 0078 0020     		movs	r0, #0
 505              	.LBE26:
 506              	.LBE25:
 507              		.loc 1 41 0
 508 007a 02B0     		add	sp, sp, #8
 509              		.cfi_remember_state
 510              		.cfi_def_cfa_offset 24
 511              		@ sp needed
 512 007c BDEC048B 		vldm	sp!, {d8-d9}
 513              		.cfi_restore 82
ARM GAS  /var/folders/z4/49152xh17977x5plrghp70jc0000gn/T//ccJ4nqnI.s 			page 10


 514              		.cfi_restore 83
 515              		.cfi_restore 80
 516              		.cfi_restore 81
 517              		.cfi_def_cfa_offset 8
 518              	.LVL30:
 519 0080 BDE81040 		pop	{r4, lr}
 520              		.cfi_restore 14
 521              		.cfi_restore 4
 522              		.cfi_def_cfa_offset 0
 523              	.LBB28:
 524              	.LBB27:
 525              		.loc 1 44 0
 526 0084 FFF7FEBF 		b	right_motor_set_speed
 527              	.LVL31:
 528              	.L51:
 529              		.cfi_restore_state
 530 0088 FFF7FEFF 		bl	__stack_chk_fail
 531              	.LVL32:
 532              	.L53:
 533              		.align	2
 534              	.L52:
 535 008c 00000000 		.word	__stack_chk_guard
 536 0090 00007A44 		.word	1148846080
 537 0094 00000000 		.word	.LANCHOR1
 538 0098 00000000 		.word	.LANCHOR0
 539              	.LBE27:
 540              	.LBE28:
 541              		.cfi_endproc
 542              	.LFE259:
 543              		.size	motors_advanced_set_position, .-motors_advanced_set_position
 544              		.section	.text.motors_advanced_turnleft,"ax",%progbits
 545              		.align	1
 546              		.p2align 4,,15
 547              		.global	motors_advanced_turnleft
 548              		.syntax unified
 549              		.thumb
 550              		.thumb_func
 551              		.fpu fpv4-sp-d16
 552              		.type	motors_advanced_turnleft, %function
 553              	motors_advanced_turnleft:
 554              	.LFB262:
 555              		.loc 1 53 0
 556              		.cfi_startproc
 557              		@ args = 0, pretend = 0, frame = 8
 558              		@ frame_needed = 0, uses_anonymous_args = 0
 559              	.LVL33:
 560              		.loc 1 54 0
 561 0000 07EE900A 		vmov	s15, r0	@ int
 562 0004 9FED127A 		vldr.32	s14, .L59
 563              		.loc 1 53 0
 564 0008 124B     		ldr	r3, .L59+4
 565              		.loc 1 54 0
 566 000a F8EEE76A 		vcvt.f32.s32	s13, s15
 567              		.loc 1 53 0
 568 000e 00B5     		push	{lr}
 569              		.cfi_def_cfa_offset 4
 570              		.cfi_offset 14, -4
ARM GAS  /var/folders/z4/49152xh17977x5plrghp70jc0000gn/T//ccJ4nqnI.s 			page 11


 571              		.loc 1 54 0
 572 0010 C6EE870A 		vdiv.f32	s1, s13, s14
 573              		.loc 1 53 0
 574 0014 83B0     		sub	sp, sp, #12
 575              		.cfi_def_cfa_offset 16
 576              		.loc 1 53 0
 577 0016 1A68     		ldr	r2, [r3]
 578 0018 0192     		str	r2, [sp, #4]
 579              		.loc 1 55 0
 580 001a 019A     		ldr	r2, [sp, #4]
 581 001c 1B68     		ldr	r3, [r3]
 582 001e 9A42     		cmp	r2, r3
 583              		.loc 1 54 0
 584 0020 DFED0D7A 		vldr.32	s15, .L59+8
 585 0024 60EEA70A 		vmul.f32	s1, s1, s15
 586              	.LVL34:
 587              		.loc 1 55 0
 588 0028 0FD1     		bne	.L58
 589 002a 4B42     		negs	r3, r1
 590 002c 01EE903A 		vmov	s3, r3	@ int
 591 0030 07EE901A 		vmov	s15, r1	@ int
 592 0034 F8EEE11A 		vcvt.f32.s32	s3, s3
 593 0038 B8EE671A 		vcvt.f32.u32	s2, s15
 594 003c B0EE600A 		vmov.f32	s0, s1
 595              		.loc 1 56 0
 596 0040 03B0     		add	sp, sp, #12
 597              		.cfi_remember_state
 598              		.cfi_def_cfa_offset 4
 599              		@ sp needed
 600 0042 5DF804EB 		ldr	lr, [sp], #4
 601              		.cfi_restore 14
 602              		.cfi_def_cfa_offset 0
 603              		.loc 1 55 0
 604 0046 FFF7FEBF 		b	motors_advanced_set_position
 605              	.LVL35:
 606              	.L58:
 607              		.cfi_restore_state
 608 004a FFF7FEFF 		bl	__stack_chk_fail
 609              	.LVL36:
 610              	.L60:
 611 004e 00BF     		.align	2
 612              	.L59:
 613 0050 0000B443 		.word	1135869952
 614 0054 00000000 		.word	__stack_chk_guard
 615 0058 CD758641 		.word	1099331021
 616              		.cfi_endproc
 617              	.LFE262:
 618              		.size	motors_advanced_turnleft, .-motors_advanced_turnleft
 619              		.section	.text.motors_advanced_turnright,"ax",%progbits
 620              		.align	1
 621              		.p2align 4,,15
 622              		.global	motors_advanced_turnright
 623              		.syntax unified
 624              		.thumb
 625              		.thumb_func
 626              		.fpu fpv4-sp-d16
 627              		.type	motors_advanced_turnright, %function
ARM GAS  /var/folders/z4/49152xh17977x5plrghp70jc0000gn/T//ccJ4nqnI.s 			page 12


 628              	motors_advanced_turnright:
 629              	.LFB263:
 630              		.loc 1 59 0
 631              		.cfi_startproc
 632              		@ args = 0, pretend = 0, frame = 8
 633              		@ frame_needed = 0, uses_anonymous_args = 0
 634              	.LVL37:
 635              		.loc 1 60 0
 636 0000 07EE900A 		vmov	s15, r0	@ int
 637 0004 9FED127A 		vldr.32	s14, .L66
 638              		.loc 1 59 0
 639 0008 124B     		ldr	r3, .L66+4
 640              		.loc 1 60 0
 641 000a F8EEE76A 		vcvt.f32.s32	s13, s15
 642              		.loc 1 59 0
 643 000e 00B5     		push	{lr}
 644              		.cfi_def_cfa_offset 4
 645              		.cfi_offset 14, -4
 646              		.loc 1 60 0
 647 0010 C6EE870A 		vdiv.f32	s1, s13, s14
 648              		.loc 1 59 0
 649 0014 83B0     		sub	sp, sp, #12
 650              		.cfi_def_cfa_offset 16
 651              		.loc 1 59 0
 652 0016 1A68     		ldr	r2, [r3]
 653 0018 0192     		str	r2, [sp, #4]
 654              		.loc 1 61 0
 655 001a 019A     		ldr	r2, [sp, #4]
 656 001c 1B68     		ldr	r3, [r3]
 657 001e 9A42     		cmp	r2, r3
 658              		.loc 1 60 0
 659 0020 DFED0D7A 		vldr.32	s15, .L66+8
 660 0024 60EEA70A 		vmul.f32	s1, s1, s15
 661              	.LVL38:
 662              		.loc 1 61 0
 663 0028 0FD1     		bne	.L65
 664 002a 4B42     		negs	r3, r1
 665 002c 01EE103A 		vmov	s2, r3	@ int
 666 0030 07EE901A 		vmov	s15, r1	@ int
 667 0034 B8EEC11A 		vcvt.f32.s32	s2, s2
 668 0038 F8EE671A 		vcvt.f32.u32	s3, s15
 669 003c B0EE600A 		vmov.f32	s0, s1
 670              		.loc 1 62 0
 671 0040 03B0     		add	sp, sp, #12
 672              		.cfi_remember_state
 673              		.cfi_def_cfa_offset 4
 674              		@ sp needed
 675 0042 5DF804EB 		ldr	lr, [sp], #4
 676              		.cfi_restore 14
 677              		.cfi_def_cfa_offset 0
 678              		.loc 1 61 0
 679 0046 FFF7FEBF 		b	motors_advanced_set_position
 680              	.LVL39:
 681              	.L65:
 682              		.cfi_restore_state
 683 004a FFF7FEFF 		bl	__stack_chk_fail
 684              	.LVL40:
ARM GAS  /var/folders/z4/49152xh17977x5plrghp70jc0000gn/T//ccJ4nqnI.s 			page 13


 685              	.L67:
 686 004e 00BF     		.align	2
 687              	.L66:
 688 0050 0000B443 		.word	1135869952
 689 0054 00000000 		.word	__stack_chk_guard
 690 0058 CD758641 		.word	1099331021
 691              		.cfi_endproc
 692              	.LFE263:
 693              		.size	motors_advanced_turnright, .-motors_advanced_turnright
 694              		.section	.bss.target_position_left,"aw",%nobits
 695              		.align	2
 696              		.set	.LANCHOR0,. + 0
 697              		.type	target_position_left, %object
 698              		.size	target_position_left, 4
 699              	target_position_left:
 700 0000 00000000 		.space	4
 701              		.section	.bss.target_position_right,"aw",%nobits
 702              		.align	2
 703              		.set	.LANCHOR1,. + 0
 704              		.type	target_position_right, %object
 705              		.size	target_position_right, 4
 706              	target_position_right:
 707 0000 00000000 		.space	4
 708              		.text
 709              	.Letext0:
 710              		.file 2 "/Applications/Eclipse_e-puck2.app/Contents/Eclipse_e-puck2/Tools/gcc-arm-none-eabi-7-2017
 711              		.file 3 "/Applications/Eclipse_e-puck2.app/Contents/Eclipse_e-puck2/Tools/gcc-arm-none-eabi-7-2017
 712              		.file 4 "/Applications/Eclipse_e-puck2.app/Contents/Eclipse_e-puck2/Tools/gcc-arm-none-eabi-7-2017
 713              		.file 5 "../lib/e-puck2_main-processor/ChibiOS//os/rt/ports/ARMCMx/compilers/GCC/chtypes.h"
 714              		.file 6 "../lib/e-puck2_main-processor/ChibiOS//os/rt/include/chsystypes.h"
 715              		.file 7 "../lib/e-puck2_main-processor/ChibiOS//os/rt/include/chschd.h"
 716              		.file 8 "../lib/e-puck2_main-processor/ChibiOS//os/ext/CMSIS/include/core_cm4.h"
 717              		.file 9 "../lib/e-puck2_main-processor/ChibiOS//os/ext/CMSIS/ST/system_stm32f4xx.h"
 718              		.file 10 "../lib/e-puck2_main-processor/ChibiOS//os/ext/CMSIS/ST/stm32f407xx.h"
 719              		.file 11 "../lib/e-puck2_main-processor/ChibiOS//os/rt/ports/ARMCMx/chcore.h"
 720              		.file 12 "../lib/e-puck2_main-processor/ChibiOS//os/rt/ports/ARMCMx/chcore_v7m.h"
 721              		.file 13 "../lib/e-puck2_main-processor/ChibiOS//os/rt/include/chdebug.h"
 722              		.file 14 "../lib/e-puck2_main-processor/ChibiOS//os/rt/include/chtm.h"
 723              		.file 15 "../lib/e-puck2_main-processor/ChibiOS//os/rt/include/chstats.h"
 724              		.file 16 "../lib/e-puck2_main-processor/ChibiOS//os/rt/include/chsem.h"
 725              		.file 17 "../lib/e-puck2_main-processor/ChibiOS//os/rt/include/chmtx.h"
 726              		.file 18 "../lib/e-puck2_main-processor/ChibiOS//os/rt/include/chregistry.h"
 727              		.file 19 "../lib/e-puck2_main-processor/ChibiOS//os/rt/include/chevents.h"
 728              		.file 20 "../lib/e-puck2_main-processor/ChibiOS//os/rt/include/chqueues.h"
 729              		.file 21 "../lib/e-puck2_main-processor/ChibiOS//os/hal/ports/STM32/STM32F4xx/stm32_dma.h"
 730              		.file 22 "../lib/e-puck2_main-processor/ChibiOS//os/hal/include/hal_ioblock.h"
 731              		.file 23 "../lib/e-puck2_main-processor/ChibiOS//os/hal/ports/STM32/LLD/GPIOv2/pal_lld.h"
 732              		.file 24 "../lib/e-puck2_main-processor/ChibiOS//os/hal/include/adc.h"
 733              		.file 25 "../lib/e-puck2_main-processor/ChibiOS//os/hal/ports/STM32/STM32F4xx/adc_lld.h"
 734              		.file 26 "../lib/e-puck2_main-processor/ChibiOS//os/hal/include/can.h"
 735              		.file 27 "../lib/e-puck2_main-processor/ChibiOS//os/hal/ports/STM32/LLD/can_lld.h"
 736              		.file 28 "../lib/e-puck2_main-processor/ChibiOS//os/hal/include/dac.h"
 737              		.file 29 "../lib/e-puck2_main-processor/ChibiOS//os/hal/ports/STM32/LLD/DACv1/dac_lld.h"
 738              		.file 30 "../lib/e-puck2_main-processor/ChibiOS//os/hal/include/ext.h"
 739              		.file 31 "../lib/e-puck2_main-processor/ChibiOS//os/hal/ports/STM32/LLD/ext_lld.h"
 740              		.file 32 "../lib/e-puck2_main-processor/ChibiOS//os/hal/include/gpt.h"
 741              		.file 33 "../lib/e-puck2_main-processor/ChibiOS//os/hal/ports/STM32/LLD/TIMv1/gpt_lld.h"
ARM GAS  /var/folders/z4/49152xh17977x5plrghp70jc0000gn/T//ccJ4nqnI.s 			page 14


 742              		.file 34 "../lib/e-puck2_main-processor/ChibiOS//os/hal/ports/STM32/LLD/TIMv1/stm32_tim.h"
 743              		.file 35 "../lib/e-puck2_main-processor/ChibiOS//os/hal/include/i2c.h"
 744              		.file 36 "../lib/e-puck2_main-processor/ChibiOS//os/hal/ports/STM32/LLD/I2Cv1/i2c_lld.h"
 745              		.file 37 "../lib/e-puck2_main-processor/ChibiOS//os/hal/include/i2s.h"
 746              		.file 38 "../lib/e-puck2_main-processor/ChibiOS//os/hal/ports/STM32/LLD/SPIv1/i2s_lld.h"
 747              		.file 39 "../lib/e-puck2_main-processor/ChibiOS//os/hal/include/pwm.h"
 748              		.file 40 "../lib/e-puck2_main-processor/ChibiOS//os/hal/ports/STM32/LLD/TIMv1/pwm_lld.h"
 749              		.file 41 "../lib/e-puck2_main-processor/ChibiOS//os/hal/include/serial.h"
 750              		.file 42 "../lib/e-puck2_main-processor/ChibiOS//os/hal/ports/STM32/LLD/USARTv1/serial_lld.h"
 751              		.file 43 "../lib/e-puck2_main-processor/ChibiOS//os/hal/include/sdc.h"
 752              		.file 44 "../lib/e-puck2_main-processor/ChibiOS//os/hal/ports/STM32/LLD/sdc_lld.h"
 753              		.file 45 "../lib/e-puck2_main-processor/ChibiOS//os/hal/include/spi.h"
 754              		.file 46 "../lib/e-puck2_main-processor/ChibiOS//os/hal/ports/STM32/LLD/SPIv1/spi_lld.h"
 755              		.file 47 "../lib/e-puck2_main-processor/ChibiOS//os/hal/include/usb.h"
 756              		.file 48 "../lib/e-puck2_main-processor/ChibiOS//os/hal/ports/STM32/LLD/OTGv1/usb_lld.h"
 757              		.file 49 "../lib/e-puck2_main-processor/ChibiOS//os/hal/ports/STM32/LLD/OTGv1/stm32_otg.h"
 758              		.file 50 "../lib/e-puck2_main-processor/src/motors.h"
 759              		.file 51 "<built-in>"